EXPORTS
	??1CMccUlDlClient@@UAE@XZ @ 1 NONAME ; CMccUlDlClient::~CMccUlDlClient(void)
	?BindContextIntoStreamL@CMccUlDlClient@@QAEXKKKABVTMccCryptoContext@@@Z @ 2 NONAME ; void CMccUlDlClient::BindContextIntoStreamL(unsigned long, unsigned long, unsigned long, class TMccCryptoContext const &)
	?CloseL@CMccUlDlClient@@QAEXKK@Z @ 3 NONAME ; void CMccUlDlClient::CloseL(unsigned long, unsigned long)
	?CloseLinkL@CMccUlDlClient@@QAEHK@Z @ 4 NONAME ; int CMccUlDlClient::CloseLinkL(unsigned long)
	?CreateLinkL@CMccUlDlClient@@QAEXAAKH@Z @ 5 NONAME ; void CMccUlDlClient::CreateLinkL(unsigned long &, int)
	?CreateRtpSessionL@CMccUlDlClient@@QAEXKIHH@Z @ 6 NONAME ; void CMccUlDlClient::CreateRtpSessionL(unsigned long, unsigned int, int, int)
	?GenerateStreamId@CMccUlDlClient@@QAEKXZ @ 7 NONAME ; unsigned long CMccUlDlClient::GenerateStreamId(void)
	?GetAudioRouteL@CMccUlDlClient@@QAEXKKAAK@Z @ 8 NONAME ; void CMccUlDlClient::GetAudioRouteL(unsigned long, unsigned long, unsigned long &)
	?GetCodecDefaultsL@CMccUlDlClient@@SAXVTUid@@AAVTDes8@@AAVTMccCodecInfo@@@Z @ 9 NONAME ; void CMccUlDlClient::GetCodecDefaultsL(class TUid, class TDes8 &, class TMccCodecInfo &)
	?GetCodecL@CMccUlDlClient@@QAEXKKAAVTMccCodecInfo@@@Z @ 10 NONAME ; void CMccUlDlClient::GetCodecL(unsigned long, unsigned long, class TMccCodecInfo &)
	?GetFmtpAttrL@CMccUlDlClient@@QAEXKKAAVTDes8@@@Z @ 11 NONAME ; void CMccUlDlClient::GetFmtpAttrL(unsigned long, unsigned long, class TDes8 &)
	?GetGainL@CMccUlDlClient@@QAEHKKAAH@Z @ 12 NONAME ; int CMccUlDlClient::GetGainL(unsigned long, unsigned long, int &)
	?GetLocalIpAddressesL@CMccUlDlClient@@QAEXAAVTMccCreateLink@@@Z @ 13 NONAME ; void CMccUlDlClient::GetLocalIpAddressesL(class TMccCreateLink &)
	?GetPlayBalanceL@CMccUlDlClient@@QAEHKKAAH0@Z @ 14 NONAME ; int CMccUlDlClient::GetPlayBalanceL(unsigned long, unsigned long, int &, int &)
	?GetRecordBalanceL@CMccUlDlClient@@QAEHKKAAH0@Z @ 15 NONAME ; int CMccUlDlClient::GetRecordBalanceL(unsigned long, unsigned long, int &, int &)
	?GetSSRCL@CMccUlDlClient@@QAEXKKAAK@Z @ 16 NONAME ; void CMccUlDlClient::GetSSRCL(unsigned long, unsigned long, unsigned long &)
	?GetSessionId@CMccUlDlClient@@QAEKXZ @ 17 NONAME ; unsigned long CMccUlDlClient::GetSessionId(void)
	?GetSupportedBitratesL@CMccUlDlClient@@QAEXKKAAV?$RArray@I@@@Z @ 18 NONAME ; void CMccUlDlClient::GetSupportedBitratesL(unsigned long, unsigned long, class RArray<unsigned int> &)
	?InitializeLinkL@CMccUlDlClient@@QAEXAAVTRequestStatus@@KH@Z @ 19 NONAME ; void CMccUlDlClient::InitializeLinkL(class TRequestStatus &, unsigned long, int)
	?MaxGainL@CMccUlDlClient@@QAEXKKAAH@Z @ 20 NONAME ; void CMccUlDlClient::MaxGainL(unsigned long, unsigned long, int &)
	?MaxVolumeL@CMccUlDlClient@@QAEXKKAAH@Z @ 21 NONAME ; void CMccUlDlClient::MaxVolumeL(unsigned long, unsigned long, int &)
	?NewL@CMccUlDlClient@@SAPAV1@PAVMMccEventHandler@@PAVMMccResources@@K@Z @ 22 NONAME ; class CMccUlDlClient * CMccUlDlClient::NewL(class MMccEventHandler *, class MMccResources *, unsigned long)
	?OpenL@CMccUlDlClient@@QAEXKKHVTFourCC@@PAVMDataSource@@PAVMDataSink@@VTMMFPrioritySettings@@@Z @ 23 NONAME ; void CMccUlDlClient::OpenL(unsigned long, unsigned long, int, class TFourCC, class MDataSource *, class MDataSink *, class TMMFPrioritySettings)
	?PauseL@CMccUlDlClient@@QAEXKKKH@Z @ 24 NONAME ; void CMccUlDlClient::PauseL(unsigned long, unsigned long, unsigned long, int)
	?PlayL@CMccUlDlClient@@QAEXKKKHH@Z @ 25 NONAME ; void CMccUlDlClient::PlayL(unsigned long, unsigned long, unsigned long, int, int)
	?PrepareL@CMccUlDlClient@@QAEXKKK@Z @ 26 NONAME ; void CMccUlDlClient::PrepareL(unsigned long, unsigned long, unsigned long)
	?RemoveContextL@CMccUlDlClient@@QAEXKKK@Z @ 27 NONAME ; void CMccUlDlClient::RemoveContextL(unsigned long, unsigned long, unsigned long)
	?ResumeL@CMccUlDlClient@@QAEXKKKH@Z @ 28 NONAME ; void CMccUlDlClient::ResumeL(unsigned long, unsigned long, unsigned long, int)
	?SendMediaSignalL@CMccUlDlClient@@QAEXABVTMccEvent@@@Z @ 29 NONAME ; void CMccUlDlClient::SendMediaSignalL(class TMccEvent const &)
	?SendRTCPDataL@CMccUlDlClient@@QAEXKKABVTDesC8@@@Z @ 30 NONAME ; void CMccUlDlClient::SendRTCPDataL(unsigned long, unsigned long, class TDesC8 const &)
	?SendRTCPReceiverReportL@CMccUlDlClient@@QAEXKK@Z @ 31 NONAME ; void CMccUlDlClient::SendRTCPReceiverReportL(unsigned long, unsigned long)
	?SendRTCPSenderReportL@CMccUlDlClient@@QAEXKK@Z @ 32 NONAME ; void CMccUlDlClient::SendRTCPSenderReportL(unsigned long, unsigned long)
	?SetAudioRouteL@CMccUlDlClient@@QAEXKKK@Z @ 33 NONAME ; void CMccUlDlClient::SetAudioRouteL(unsigned long, unsigned long, unsigned long)
	?SetCodecInformationL@CMccUlDlClient@@QAEXKKABVTMccCodecInfo@@ABVTDesC8@@@Z @ 34 NONAME ; void CMccUlDlClient::SetCodecInformationL(unsigned long, unsigned long, class TMccCodecInfo const &, class TDesC8 const &)
	?SetGainL@CMccUlDlClient@@QAEHH@Z @ 35 NONAME ; int CMccUlDlClient::SetGainL(int)
	?SetPlayBalanceL@CMccUlDlClient@@QAEXKKHH@Z @ 36 NONAME ; void CMccUlDlClient::SetPlayBalanceL(unsigned long, unsigned long, int, int)
	?SetPriorityL@CMccUlDlClient@@QAEHKKVTMMFPrioritySettings@@@Z @ 37 NONAME ; int CMccUlDlClient::SetPriorityL(unsigned long, unsigned long, class TMMFPrioritySettings)
	?SetRecordBalanceL@CMccUlDlClient@@QAEXKKHH@Z @ 38 NONAME ; void CMccUlDlClient::SetRecordBalanceL(unsigned long, unsigned long, int, int)
	?SetRemoteAddressL@CMccUlDlClient@@QAEXVTInetAddr@@K@Z @ 39 NONAME ; void CMccUlDlClient::SetRemoteAddressL(class TInetAddr, unsigned long)
	?SetVolumeL@CMccUlDlClient@@QAEHH@Z @ 40 NONAME ; int CMccUlDlClient::SetVolumeL(int)
	?StartInactivityTimerL@CMccUlDlClient@@QAEXKKK@Z @ 41 NONAME ; void CMccUlDlClient::StartInactivityTimerL(unsigned long, unsigned long, unsigned long)
	?StopInactivityTimerL@CMccUlDlClient@@QAEXKK@Z @ 42 NONAME ; void CMccUlDlClient::StopInactivityTimerL(unsigned long, unsigned long)
	?StopL@CMccUlDlClient@@QAEXKKK@Z @ 43 NONAME ; void CMccUlDlClient::StopL(unsigned long, unsigned long, unsigned long)
	?StreamsExistsL@CMccUlDlClient@@QAEHK@Z @ 44 NONAME ; int CMccUlDlClient::StreamsExistsL(unsigned long)
	?UnuseL@CMccUlDlClient@@QAEXKK@Z @ 45 NONAME ; void CMccUlDlClient::UnuseL(unsigned long, unsigned long)
	?GetParameterL@@YAXKKKKAAVTDesC8@@@Z @ 46 NONAME ; void GetParameterL(unsigned long, unsigned long, unsigned long, unsigned long, class TDesC8 &)
	?SetParameterL@CMccUlDlClient@@QAEXKKKKABVTDesC8@@@Z @ 47 NONAME ; void CMccUlDlClient::SetParameterL(unsigned long, unsigned long, unsigned long, unsigned long, class TDesC8 const &)
	?SetRemoteRtcpAddrL@CMccUlDlClient@@QAEXVTInetAddr@@K@Z @ 48 NONAME ; void CMccUlDlClient::SetRemoteRtcpAddrL(class TInetAddr, unsigned long)

