EXPORTS
	?CreateTestSuiteL@@YAPAVMEUnitTest@@XZ @ 1 NONAME ; class MEUnitTest * __cdecl CreateTestSuiteL(void)
	?StreamsExists@CMccInterface@@QAEHKK@Z @ 2 NONAME ; int CMccInterface::StreamsExists(unsigned long, unsigned long)
	?SetRemoteAddress@CMccInterface@@QAEHKKABVTInetAddr@@I@Z @ 3 NONAME ; int CMccInterface::SetRemoteAddress(unsigned long, unsigned long, class TInetAddr const &, unsigned int)
	?DeleteStream@CMccInterface@@QAEHKKK@Z @ 4 NONAME ; int CMccInterface::DeleteStream(unsigned long, unsigned long, unsigned long)
	?ResumeStream@CMccInterface@@QAEHKKKKH@Z @ 5 NONAME ; int CMccInterface::ResumeStream(unsigned long, unsigned long, unsigned long, unsigned long, int)
	?RemoveContext@CMccSecureInterface@@QAEHK@Z @ 6 NONAME ; int CMccSecureInterface::RemoveContext(unsigned long)
	?Reuse@CMccInterface@@QAEHKKKK@Z @ 7 NONAME ; int CMccInterface::Reuse(unsigned long, unsigned long, unsigned long, unsigned long)
	?ListImplementationsL@REComSession@@SAXVTUid@@AAV?$RPointerArray@VCImplementationInformation@@@@@Z @ 8 NONAME ; void REComSession::ListImplementationsL(class TUid, class RPointerArray<class CImplementationInformation> &)
	?UpdateDataSource@CMccInterface@@QAEHKKKKABVTDesC8@@@Z @ 9 NONAME ; int CMccInterface::UpdateDataSource(unsigned long, unsigned long, unsigned long, unsigned long, class TDesC8 const &)
	?CreateCodecInformationL@CMccCodecInformationFactory@@QAEPAVCMccCodecInformation@@VTFourCC@@@Z @ 10 NONAME ; class CMccCodecInformation * CMccCodecInformationFactory::CreateCodecInformationL(class TFourCC)
	?SetParameter@CMccInterface@@QAEHKKKKKABVTDesC8@@@Z @ 11 NONAME ; int CMccInterface::SetParameter(unsigned long, unsigned long, unsigned long, unsigned long, unsigned long, class TDesC8 const &)
	?PrepareStream@CMccInterface@@QAEHKKKK@Z @ 12 NONAME ; int CMccInterface::PrepareStream(unsigned long, unsigned long, unsigned long, unsigned long)
	?DestroyedImplementation@REComSession@@SAXVTUid@@@Z @ 13 NONAME ; void REComSession::DestroyedImplementation(class TUid)
	?TranscodeFile@CMccInterface@@QAEHABVTDesC8@@0KAAKPBVCMccCodecInformation@@2@Z @ 14 NONAME ; int CMccInterface::TranscodeFile(class TDesC8 const &, class TDesC8 const &, unsigned long, unsigned long &, class CMccCodecInformation const *, class CMccCodecInformation const *)
	?CreateImplementationL@REComSession@@SAPAXVTUid@@J@Z @ 15 NONAME ; void * REComSession::CreateImplementationL(class TUid, long)
	?NewL@CMccCodecInformationFactory@@SAPAV1@XZ @ 16 NONAME ; class CMccCodecInformationFactory * CMccCodecInformationFactory::NewL(void)
	?FinalClose@REComSession@@SAXXZ @ 17 NONAME ; void REComSession::FinalClose(void)
	?CreateLink@CMccInterface@@QAEHKHAAKAAVTMccNetSettings@@@Z @ 18 NONAME ; int CMccInterface::CreateLink(unsigned long, int, unsigned long &, class TMccNetSettings &)
	?PauseStream@CMccInterface@@QAEHKKKKH@Z @ 19 NONAME ; int CMccInterface::PauseStream(unsigned long, unsigned long, unsigned long, unsigned long, int)
	?StopStream@CMccInterface@@QAEHKKKK@Z @ 20 NONAME ; int CMccInterface::StopStream(unsigned long, unsigned long, unsigned long, unsigned long)
	?SetCodec@CMccInterface@@QAEHKKKAAVCMccCodecInformation@@@Z @ 21 NONAME ; int CMccInterface::SetCodec(unsigned long, unsigned long, unsigned long, class CMccCodecInformation &)
	?CreateSession@CMccInterface@@QAEHAAK@Z @ 22 NONAME ; int CMccInterface::CreateSession(unsigned long &)
	?CreateStream@CMccInterface@@QAEHKKAAKHAAVCMccCodecInformation@@@Z @ 23 NONAME ; int CMccInterface::CreateStream(unsigned long, unsigned long, unsigned long &, int, class CMccCodecInformation &)
	?NewL@CMccSecureInterface@@SAPAV1@AAVCMccInterface@@@Z @ 24 NONAME ; class CMccSecureInterface * CMccSecureInterface::NewL(class CMccInterface &)
	?UpdateContext@CMccSecureInterface@@QAEHABVTDesC8@@0K0@Z @ 25 NONAME ; int CMccSecureInterface::UpdateContext(class TDesC8 const &, class TDesC8 const &, unsigned long, class TDesC8 const &)
	?StopInactivityTimer@CMccInterface@@QAEHKKKK@Z @ 26 NONAME ; int CMccInterface::StopInactivityTimer(unsigned long, unsigned long, unsigned long, unsigned long)
	?Bind@CMccSecureInterface@@QAEHKKKKK@Z @ 27 NONAME ; int CMccSecureInterface::Bind(unsigned long, unsigned long, unsigned long, unsigned long, unsigned long)
	?CreateCodecInformationL@CMccCodecInformationFactory@@QAEPAVCMccCodecInformation@@ABVTDesC8@@@Z @ 28 NONAME ; class CMccCodecInformation * CMccCodecInformationFactory::CreateCodecInformationL(class TDesC8 const &)
	?SendMediaSignalL@CMccInterface@@QAEXABVTMccEvent@@@Z @ 29 NONAME ; void CMccInterface::SendMediaSignalL(class TMccEvent const &)
	?StartStream@CMccInterface@@QAEHKKKKHH@Z @ 30 NONAME ; int CMccInterface::StartStream(unsigned long, unsigned long, unsigned long, unsigned long, int, int)
	?CreateContext@CMccSecureInterface@@QAEHABVTDesC8@@0AAK0@Z @ 31 NONAME ; int CMccSecureInterface::CreateContext(class TDesC8 const &, class TDesC8 const &, unsigned long &, class TDesC8 const &)
	?RemoveDataSink@CMccInterface@@QAEHKKKK@Z @ 32 NONAME ; int CMccInterface::RemoveDataSink(unsigned long, unsigned long, unsigned long, unsigned long)
	??0REComSession@@QAE@XZ @ 33 NONAME ; REComSession::REComSession(void)
	?StartInactivityTimer@CMccInterface@@QAEHKKKKK@Z @ 34 NONAME ; int CMccInterface::StartInactivityTimer(unsigned long, unsigned long, unsigned long, unsigned long, unsigned long)
	?CloseLink@CMccInterface@@QAEHKK@Z @ 35 NONAME ; int CMccInterface::CloseLink(unsigned long, unsigned long)
	?ReferenceCount@CMccInterface@@QAEHKKKKAAI@Z @ 36 NONAME ; int CMccInterface::ReferenceCount(unsigned long, unsigned long, unsigned long, unsigned long, unsigned int &)
	?CodecL@CMccInterface@@QAEPAVCMccCodecInformation@@KKK@Z @ 37 NONAME ; class CMccCodecInformation * CMccInterface::CodecL(unsigned long, unsigned long, unsigned long)
	?GetParameter@CMccInterface@@QAEHKKKKKAAVTDes8@@@Z @ 38 NONAME ; int CMccInterface::GetParameter(unsigned long, unsigned long, unsigned long, unsigned long, unsigned long, class TDes8 &)
	?NewL@CMccInterface@@SAPAV1@AAVMMccCtrlObserver@@@Z @ 39 NONAME ; class CMccInterface * CMccInterface::NewL(class MMccCtrlObserver &)
	?CancelTranscodeFile@CMccInterface@@QAEHK@Z @ 40 NONAME ; int CMccInterface::CancelTranscodeFile(unsigned long)
	?LinkExists@CMccInterface@@QAEHKAAKABVTMccNetSettings@@@Z @ 41 NONAME ; int CMccInterface::LinkExists(unsigned long, unsigned long &, class TMccNetSettings const &)
	?AddDataSink@CMccInterface@@QAEHVTUid@@ABVTDesC8@@AAK@Z @ 42 NONAME ; int CMccInterface::AddDataSink(class TUid, class TDesC8 const &, unsigned long &)
	?RemoveDataSource@CMccInterface@@QAEHKKKK@Z @ 43 NONAME ; int CMccInterface::RemoveDataSource(unsigned long, unsigned long, unsigned long, unsigned long)
	?CloseSession@CMccInterface@@QAEHK@Z @ 44 NONAME ; int CMccInterface::CloseSession(unsigned long)
	?GetCapabilities@CMccInterface@@QBEHAAV?$RPointerArray@VCMccCodecInformation@@@@@Z @ 45 NONAME ; int CMccInterface::GetCapabilities(class RPointerArray<class CMccCodecInformation> &) const
	?AddDataSource@CMccInterface@@QAEHVTUid@@ABVTDesC8@@AAK@Z @ 46 NONAME ; int CMccInterface::AddDataSource(class TUid, class TDesC8 const &, unsigned long &)
	?GetSSRC@CMccInterface@@QAEHKKKKAAK@Z @ 47 NONAME ; int CMccInterface::GetSSRC(unsigned long, unsigned long, unsigned long, unsigned long, unsigned long &)
	?UpdateDataSink@CMccInterface@@QAEHKKKKABVTDesC8@@@Z @ 48 NONAME ; int CMccInterface::UpdateDataSink(unsigned long, unsigned long, unsigned long, unsigned long, class TDesC8 const &)

