EXPORTS
	_Z16CreateTestSuiteLv @ 1 NONAME
	_ZN13CNcmPortStore4PortEv @ 2 NONAME
	_ZN13CNcmPortStore8FreePortEj @ 3 NONAME
	_ZN25CNcmConnectionMultiplexer10PortStoreLEj @ 4 NONAME
	_ZN25CNcmConnectionMultiplexer13CreateStreamLEjij @ 5 NONAME
	_ZN25CNcmConnectionMultiplexer13RemoveStreamLEj @ 6 NONAME
	_ZN25CNcmConnectionMultiplexer14CreateSessionLEmjj @ 7 NONAME
	_ZN25CNcmConnectionMultiplexer14GetStreamInfoLEjRmRiRj @ 8 NONAME
	_ZN25CNcmConnectionMultiplexer14RemoveSessionLEj @ 9 NONAME
	_ZN25CNcmConnectionMultiplexer15GetSessionInfoLEjR4TBufILi128EE @ 10 NONAME
	_ZN25CNcmConnectionMultiplexer15LocalIPAddressLEjj @ 11 NONAME
	_ZN25CNcmConnectionMultiplexer16SetSendingStateLEjjRK9TInetAddr20TNATFWStreamingState @ 12 NONAME
	_ZN25CNcmConnectionMultiplexer17CancelMessageSendEjjPK18MNcmSenderObserver @ 13 NONAME
	_ZN25CNcmConnectionMultiplexer17CreateConnectionLEjRK9TInetAddr @ 14 NONAME
	_ZN25CNcmConnectionMultiplexer17CreateConnectionLEjj @ 15 NONAME
	_ZN25CNcmConnectionMultiplexer17RemoveConnectionLEjj @ 16 NONAME
	_ZN25CNcmConnectionMultiplexer18CloseTcpConnectionEjj @ 17 NONAME
	_ZN25CNcmConnectionMultiplexer18OpenTcpConnectionLEjj24TNATFWTcpConnectionSetupRK9TInetAddr @ 18 NONAME
	_ZN25CNcmConnectionMultiplexer18SetReceivingStateLEjj20TNATFWStreamingState @ 19 NONAME
	_ZN25CNcmConnectionMultiplexer21RegisterMediaWrapperLEP18MNATFWMediaWrapper @ 20 NONAME
	_ZN25CNcmConnectionMultiplexer23SetAcceptedFromAddressLEjjRK9TInetAddr @ 21 NONAME
	_ZN25CNcmConnectionMultiplexer24RegisterMessageObserverLEjR19MNcmMessageObserver @ 22 NONAME
	_ZN25CNcmConnectionMultiplexer24SetSendingStateForMediaLEjj20TNATFWStreamingState @ 23 NONAME
	_ZN25CNcmConnectionMultiplexer26ResolveDestinationAddressLEjRK6TDesC8jR9TInetAddr @ 24 NONAME
	_ZN25CNcmConnectionMultiplexer26SetReceivingStateForMediaLEjj20TNATFWStreamingState @ 25 NONAME
	_ZN25CNcmConnectionMultiplexer26UnregisterMessageObserverLEjR19MNcmMessageObserver @ 26 NONAME
	_ZN25CNcmConnectionMultiplexer27RegisterConnectionObserverLEjR22MNcmConnectionObserver @ 27 NONAME
	_ZN25CNcmConnectionMultiplexer29UnregisterConnectionObserverLEjR22MNcmConnectionObserver @ 28 NONAME
	_ZN25CNcmConnectionMultiplexer35RegisterIncomingConnectionObserverLEjR30MNcmIncomingConnectionObserver @ 29 NONAME
	_ZN25CNcmConnectionMultiplexer35RegisterOutgoingConnectionObserverLEjR30MNcmOutgoingConnectionObserver @ 30 NONAME
	_ZN25CNcmConnectionMultiplexer37UnregisterIncomingConnectionObserverLEjR30MNcmIncomingConnectionObserver @ 31 NONAME
	_ZN25CNcmConnectionMultiplexer37UnregisterOutgoingConnectionObserverLEjR30MNcmOutgoingConnectionObserver @ 32 NONAME
	_ZN25CNcmConnectionMultiplexer4NewLER33MNcmConnectionMultiplexerObserver @ 33 NONAME
	_ZN25CNcmConnectionMultiplexer5SendLEjRK6TDesC8RK9TInetAddrS5_ @ 34 NONAME
	_ZN25CNcmConnectionMultiplexer5SendLEjjRK6TDesC8P18MNcmSenderObserver @ 35 NONAME
	_ZN25CNcmConnectionMultiplexer5SendLEjjRK6TDesC8RK9TInetAddrP18MNcmSenderObserver @ 36 NONAME
	_ZN25CNcmConnectionMultiplexer5SendLEjjRK6TDesC8iP18MNcmSenderObserver @ 37 NONAME
	_ZTI13CNcmPortStore @ 38 NONAME ; #<TI>#
	_ZTI25CNcmConnectionMultiplexer @ 39 NONAME ; #<TI>#
	_ZTI27UT_CNcmLocalAddressResolver @ 40 NONAME ; #<TI>#
	_ZTV13CNcmPortStore @ 41 NONAME ; #<VT>#
	_ZTV25CNcmConnectionMultiplexer @ 42 NONAME ; #<VT>#
	_ZTV27UT_CNcmLocalAddressResolver @ 43 NONAME ; #<VT>#
	_ZThn4_N25CNcmConnectionMultiplexer14GetStreamInfoLEjRmRiRj @ 44 NONAME ; #<thunk>#
	_ZThn4_N25CNcmConnectionMultiplexer15LocalIPAddressLEjj @ 45 NONAME ; #<thunk>#
	_ZThn4_N25CNcmConnectionMultiplexer16SetSendingStateLEjjRK9TInetAddr20TNATFWStreamingState @ 46 NONAME ; #<thunk>#
	_ZThn4_N25CNcmConnectionMultiplexer17CancelMessageSendEjjPK18MNcmSenderObserver @ 47 NONAME ; #<thunk>#
	_ZThn4_N25CNcmConnectionMultiplexer17CreateConnectionLEjRK9TInetAddr @ 48 NONAME ; #<thunk>#
	_ZThn4_N25CNcmConnectionMultiplexer17CreateConnectionLEjj @ 49 NONAME ; #<thunk>#
	_ZThn4_N25CNcmConnectionMultiplexer17RemoveConnectionLEjj @ 50 NONAME ; #<thunk>#
	_ZThn4_N25CNcmConnectionMultiplexer18CloseTcpConnectionEjj @ 51 NONAME ; #<thunk>#
	_ZThn4_N25CNcmConnectionMultiplexer18OpenTcpConnectionLEjj24TNATFWTcpConnectionSetupRK9TInetAddr @ 52 NONAME ; #<thunk>#
	_ZThn4_N25CNcmConnectionMultiplexer18SetReceivingStateLEjj20TNATFWStreamingState @ 53 NONAME ; #<thunk>#
	_ZThn4_N25CNcmConnectionMultiplexer23SetAcceptedFromAddressLEjjRK9TInetAddr @ 54 NONAME ; #<thunk>#
	_ZThn4_N25CNcmConnectionMultiplexer24RegisterMessageObserverLEjR19MNcmMessageObserver @ 55 NONAME ; #<thunk>#
	_ZThn4_N25CNcmConnectionMultiplexer26UnregisterMessageObserverLEjR19MNcmMessageObserver @ 56 NONAME ; #<thunk>#
	_ZThn4_N25CNcmConnectionMultiplexer27RegisterConnectionObserverLEjR22MNcmConnectionObserver @ 57 NONAME ; #<thunk>#
	_ZThn4_N25CNcmConnectionMultiplexer29UnregisterConnectionObserverLEjR22MNcmConnectionObserver @ 58 NONAME ; #<thunk>#
	_ZThn4_N25CNcmConnectionMultiplexer35RegisterIncomingConnectionObserverLEjR30MNcmIncomingConnectionObserver @ 59 NONAME ; #<thunk>#
	_ZThn4_N25CNcmConnectionMultiplexer35RegisterOutgoingConnectionObserverLEjR30MNcmOutgoingConnectionObserver @ 60 NONAME ; #<thunk>#
	_ZThn4_N25CNcmConnectionMultiplexer37UnregisterIncomingConnectionObserverLEjR30MNcmIncomingConnectionObserver @ 61 NONAME ; #<thunk>#
	_ZThn4_N25CNcmConnectionMultiplexer37UnregisterOutgoingConnectionObserverLEjR30MNcmOutgoingConnectionObserver @ 62 NONAME ; #<thunk>#
	_ZThn4_N25CNcmConnectionMultiplexer5SendLEjRK6TDesC8RK9TInetAddrS5_ @ 63 NONAME ; #<thunk>#
	_ZThn4_N25CNcmConnectionMultiplexer5SendLEjjRK6TDesC8P18MNcmSenderObserver @ 64 NONAME ; #<thunk>#
	_ZThn4_N25CNcmConnectionMultiplexer5SendLEjjRK6TDesC8RK9TInetAddrP18MNcmSenderObserver @ 65 NONAME ; #<thunk>#
	_ZThn4_N25CNcmConnectionMultiplexer5SendLEjjRK6TDesC8iP18MNcmSenderObserver @ 66 NONAME ; #<thunk>#

