EXPORTS
	_Z16CreateTestSuiteLv @ 1 NONAME
	_ZTI10CNSPActive @ 2 NONAME ; #<TI>#
	_ZTI11CNSPSession @ 3 NONAME ; #<TI>#
	_ZTI11CNSPWrapper @ 4 NONAME ; #<TI>#
	_ZTI13CNSPInterface @ 5 NONAME ; #<TI>#
	_ZTI13CNSPStateBase @ 6 NONAME ; #<TI>#
	_ZTI13CNSPStateIdle @ 7 NONAME ; #<TI>#
	_ZTI14CNSPController @ 8 NONAME ; #<TI>#
	_ZTI15CNATFWCandidate @ 9 NONAME ; #<TI>#
	_ZTI15CNSPMediaStream @ 10 NONAME ; #<TI>#
	_ZTI15CNSPSessionData @ 11 NONAME ; #<TI>#
	_ZTI16CNSPStateMachine @ 12 NONAME ; #<TI>#
	_ZTI17CNATFWCredentials @ 13 NONAME ; #<TI>#
	_ZTI17CNSPContentParser @ 14 NONAME ; #<TI>#
	_ZTI18CNSPStateConnected @ 15 NONAME ; #<TI>#
	_ZTI18CNSPStateLocalCand @ 16 NONAME ; #<TI>#
	_ZTI18CNSPStateResolving @ 17 NONAME ; #<TI>#
	_ZTI19CNATFWCandidatePair @ 18 NONAME ; #<TI>#
	_ZTI19CNSPNATFWAsyncState @ 19 NONAME ; #<TI>#
	_ZTI19CNSPStateActivating @ 20 NONAME ; #<TI>#
	_ZTI20CNSPStateNegotiating @ 21 NONAME ; #<TI>#
	_ZTI21CNATFWConnectivityApi @ 22 NONAME ; #<TI>#
	_ZTI21CNSPStateDeActivating @ 23 NONAME ; #<TI>#
	_ZTI21CNSPStateInitializing @ 24 NONAME ; #<TI>#
	_ZTI24CNSPMediaStreamComponent @ 25 NONAME ; #<TI>#
	_ZTI24CNSPMediaStreamContainer @ 26 NONAME ; #<TI>#
	_ZTV10CNSPActive @ 27 NONAME ; #<VT>#
	_ZTV11CNSPSession @ 28 NONAME ; #<VT>#
	_ZTV11CNSPWrapper @ 29 NONAME ; #<VT>#
	_ZTV13CNSPInterface @ 30 NONAME ; #<VT>#
	_ZTV13CNSPStateBase @ 31 NONAME ; #<VT>#
	_ZTV13CNSPStateIdle @ 32 NONAME ; #<VT>#
	_ZTV14CNSPController @ 33 NONAME ; #<VT>#
	_ZTV15CNATFWCandidate @ 34 NONAME ; #<VT>#
	_ZTV15CNSPMediaStream @ 35 NONAME ; #<VT>#
	_ZTV15CNSPSessionData @ 36 NONAME ; #<VT>#
	_ZTV16CNSPStateMachine @ 37 NONAME ; #<VT>#
	_ZTV17CNATFWCredentials @ 38 NONAME ; #<VT>#
	_ZTV17CNSPContentParser @ 39 NONAME ; #<VT>#
	_ZTV18CNSPStateConnected @ 40 NONAME ; #<VT>#
	_ZTV18CNSPStateLocalCand @ 41 NONAME ; #<VT>#
	_ZTV18CNSPStateResolving @ 42 NONAME ; #<VT>#
	_ZTV19CNATFWCandidatePair @ 43 NONAME ; #<VT>#
	_ZTV19CNSPNATFWAsyncState @ 44 NONAME ; #<VT>#
	_ZTV19CNSPStateActivating @ 45 NONAME ; #<VT>#
	_ZTV20CNSPStateNegotiating @ 46 NONAME ; #<VT>#
	_ZTV21CNATFWConnectivityApi @ 47 NONAME ; #<VT>#
	_ZTV21CNSPStateDeActivating @ 48 NONAME ; #<VT>#
	_ZTV21CNSPStateInitializing @ 49 NONAME ; #<VT>#
	_ZTV24CNSPMediaStreamComponent @ 50 NONAME ; #<VT>#
	_ZTV24CNSPMediaStreamContainer @ 51 NONAME ; #<VT>#

