EXPORTS
	?AddBundle@CMccInterface@@QAEHKAAVTMccStreamBundle@@AAK@Z @ 1 NONAME ; int CMccInterface::AddBundle(unsigned long, class TMccStreamBundle &, unsigned long &)
	?AddDataSink@CMccInterface@@QAEHVTUid@@ABVTDesC8@@AAK@Z @ 2 NONAME ; int CMccInterface::AddDataSink(class TUid, class TDesC8 const &, unsigned long &)
	?AddDataSource@CMccInterface@@QAEHVTUid@@ABVTDesC8@@AAK@Z @ 3 NONAME ; int CMccInterface::AddDataSource(class TUid, class TDesC8 const &, unsigned long &)
	?CloseLink@CMccInterface@@QAEHKK@Z @ 4 NONAME ; int CMccInterface::CloseLink(unsigned long, unsigned long)
	?CloseSession@CMccInterface@@QAEHK@Z @ 5 NONAME ; int CMccInterface::CloseSession(unsigned long)
	?CodecL@CMccInterface@@QAEPAVCMccCodecInformation@@KKK@Z @ 6 NONAME ; class CMccCodecInformation * CMccInterface::CodecL(unsigned long, unsigned long, unsigned long)
	?CreateCodecInformationL@CMccCodecInformationFactory@@QAEPAVCMccCodecInformation@@ABVTDesC8@@@Z @ 7 NONAME ; class CMccCodecInformation * CMccCodecInformationFactory::CreateCodecInformationL(class TDesC8 const &)
	?CreateCodecInformationL@CMccCodecInformationFactory@@QAEPAVCMccCodecInformation@@VTFourCC@@@Z @ 8 NONAME ; class CMccCodecInformation * CMccCodecInformationFactory::CreateCodecInformationL(class TFourCC)
	?CreateLink@CMccInterface@@QAEHKHAAKAAVTMccNetSettings@@@Z @ 9 NONAME ; int CMccInterface::CreateLink(unsigned long, int, unsigned long &, class TMccNetSettings &)
	?CreateSession@CMccInterface@@QAEHAAK@Z @ 10 NONAME ; int CMccInterface::CreateSession(unsigned long &)
	?CreateStream@CMccInterface@@QAEHKKAAKHAAVCMccCodecInformation@@@Z @ 11 NONAME ; int CMccInterface::CreateStream(unsigned long, unsigned long, unsigned long &, int, class CMccCodecInformation &)
	?DeleteStream@CMccInterface@@QAEHKKK@Z @ 12 NONAME ; int CMccInterface::DeleteStream(unsigned long, unsigned long, unsigned long)
	?GetBundles@CMccInterface@@QAEHKAAV?$RArray@VTMccStreamBundle@@@@@Z @ 13 NONAME ; int CMccInterface::GetBundles(unsigned long, class RArray<class TMccStreamBundle> &)
	?GetCapabilities@CMccInterface@@QAEHVTUid@@HABVTDesC8@@AAV?$RPointerArray@VCMccCodecInformation@@@@@Z @ 14 NONAME ; int CMccInterface::GetCapabilities(class TUid, int, class TDesC8 const &, class RPointerArray<class CMccCodecInformation> &)
	?GetCapabilities@CMccInterface@@QBEHAAV?$RPointerArray@VCMccCodecInformation@@@@@Z @ 15 NONAME ; int CMccInterface::GetCapabilities(class RPointerArray<class CMccCodecInformation> &) const
	?GetParameter@CMccInterface@@QAEHKKKKKAAVTDes8@@@Z @ 16 NONAME ; int CMccInterface::GetParameter(unsigned long, unsigned long, unsigned long, unsigned long, unsigned long, class TDes8 &)
	?GetSSRC@CMccInterface@@QAEHKKKKAAK@Z @ 17 NONAME ; int CMccInterface::GetSSRC(unsigned long, unsigned long, unsigned long, unsigned long, unsigned long &)
	?LinkExists@CMccInterface@@QAEHKAAKABVTMccNetSettings@@@Z @ 18 NONAME ; int CMccInterface::LinkExists(unsigned long, unsigned long &, class TMccNetSettings const &)
	?NewL@CMccCodecInformationFactory@@SAPAV1@XZ @ 19 NONAME ; class CMccCodecInformationFactory * CMccCodecInformationFactory::NewL(void)
	?NewL@CMccInterface@@SAPAV1@AAVMMccCtrlObserver@@@Z @ 20 NONAME ; class CMccInterface * CMccInterface::NewL(class MMccCtrlObserver &)
	?PauseStream@CMccInterface@@QAEHKKKKH@Z @ 21 NONAME ; int CMccInterface::PauseStream(unsigned long, unsigned long, unsigned long, unsigned long, int)
	?PrepareStream@CMccInterface@@QAEHKKKK@Z @ 22 NONAME ; int CMccInterface::PrepareStream(unsigned long, unsigned long, unsigned long, unsigned long)
	?ReferenceCount@CMccInterface@@QAEHKKKKAAI@Z @ 23 NONAME ; int CMccInterface::ReferenceCount(unsigned long, unsigned long, unsigned long, unsigned long, unsigned int &)
	?RemoveBundle@CMccInterface@@QAEHKK@Z @ 24 NONAME ; int CMccInterface::RemoveBundle(unsigned long, unsigned long)
	?RemoveDataSink@CMccInterface@@QAEHKKKK@Z @ 25 NONAME ; int CMccInterface::RemoveDataSink(unsigned long, unsigned long, unsigned long, unsigned long)
	?RemoveDataSource@CMccInterface@@QAEHKKKK@Z @ 26 NONAME ; int CMccInterface::RemoveDataSource(unsigned long, unsigned long, unsigned long, unsigned long)
	?ResumeStream@CMccInterface@@QAEHKKKKH@Z @ 27 NONAME ; int CMccInterface::ResumeStream(unsigned long, unsigned long, unsigned long, unsigned long, int)
	?Reuse@CMccInterface@@QAEHKKKK@Z @ 28 NONAME ; int CMccInterface::Reuse(unsigned long, unsigned long, unsigned long, unsigned long)
	?SendMediaSignalL@CMccInterface@@QAEXABVTMccEvent@@@Z @ 29 NONAME ; void CMccInterface::SendMediaSignalL(class TMccEvent const &)
	?SetCodec@CMccInterface@@QAEHKKKAAVCMccCodecInformation@@@Z @ 30 NONAME ; int CMccInterface::SetCodec(unsigned long, unsigned long, unsigned long, class CMccCodecInformation &)
	?SetParameter@CMccInterface@@QAEHKKKKKABVTDesC8@@@Z @ 31 NONAME ; int CMccInterface::SetParameter(unsigned long, unsigned long, unsigned long, unsigned long, unsigned long, class TDesC8 const &)
	?SetRemoteAddress@CMccInterface@@QAEHKKABVTInetAddr@@I@Z @ 32 NONAME ; int CMccInterface::SetRemoteAddress(unsigned long, unsigned long, class TInetAddr const &, unsigned int)
	?StartInactivityTimer@CMccInterface@@QAEHKKKKK@Z @ 33 NONAME ; int CMccInterface::StartInactivityTimer(unsigned long, unsigned long, unsigned long, unsigned long, unsigned long)
	?StartStream@CMccInterface@@QAEHKKKKHH@Z @ 34 NONAME ; int CMccInterface::StartStream(unsigned long, unsigned long, unsigned long, unsigned long, int, int)
	?StopInactivityTimer@CMccInterface@@QAEHKKKK@Z @ 35 NONAME ; int CMccInterface::StopInactivityTimer(unsigned long, unsigned long, unsigned long, unsigned long)
	?StopStream@CMccInterface@@QAEHKKKK@Z @ 36 NONAME ; int CMccInterface::StopStream(unsigned long, unsigned long, unsigned long, unsigned long)
	?StreamsExists@CMccInterface@@QAEHKK@Z @ 37 NONAME ; int CMccInterface::StreamsExists(unsigned long, unsigned long)
	?UpdateDataSink@CMccInterface@@QAEHKKKKABVTDesC8@@@Z @ 38 NONAME ; int CMccInterface::UpdateDataSink(unsigned long, unsigned long, unsigned long, unsigned long, class TDesC8 const &)
	?UpdateDataSource@CMccInterface@@QAEHKKKKABVTDesC8@@@Z @ 39 NONAME ; int CMccInterface::UpdateDataSource(unsigned long, unsigned long, unsigned long, unsigned long, class TDesC8 const &)
	?CancelTranscodeFile@CMccInterface@@QAEHK@Z @ 40 NONAME ; int CMccInterface::CancelTranscodeFile(unsigned long)
	?TranscodeFile@CMccInterface@@QAEHABVTDesC8@@0KAAKPBVCMccCodecInformation@@2@Z @ 41 NONAME ; int CMccInterface::TranscodeFile(class TDesC8 const &, class TDesC8 const &, unsigned long, unsigned long &, class CMccCodecInformation const *, class CMccCodecInformation const *)
	?CancelMediaQualityRequest@CMccInterface@@QAEHABVTMccMediaQualityConfig@@@Z @ 42 NONAME ; int CMccInterface::CancelMediaQualityRequest(class TMccMediaQualityConfig const &)
	?MediaQualityRequest@CMccInterface@@QAEHABVTMccMediaQualityConfig@@@Z @ 43 NONAME ; int CMccInterface::MediaQualityRequest(class TMccMediaQualityConfig const &)
	?Bind@CMccSecureInterface@@QAEHKKKKK@Z @ 44 NONAME ; int CMccSecureInterface::Bind(unsigned long, unsigned long, unsigned long, unsigned long, unsigned long)
	?CreateContext@CMccSecureInterface@@QAEHABVTDesC8@@0AAK0@Z @ 45 NONAME ; int CMccSecureInterface::CreateContext(class TDesC8 const &, class TDesC8 const &, unsigned long &, class TDesC8 const &)
	?NewL@CMccSecureInterface@@SAPAV1@AAVCMccInterface@@@Z @ 46 NONAME ; class CMccSecureInterface * CMccSecureInterface::NewL(class CMccInterface &)
	?RemoveContext@CMccSecureInterface@@QAEHK@Z @ 47 NONAME ; int CMccSecureInterface::RemoveContext(unsigned long)
	?UpdateContext@CMccSecureInterface@@QAEHABVTDesC8@@0K0@Z @ 48 NONAME ; int CMccSecureInterface::UpdateContext(class TDesC8 const &, class TDesC8 const &, unsigned long, class TDesC8 const &)

