EXPORTS
	_Z16CreateTestSuiteLv @ 1 NONAME
	_ZN18CNATFWUNSAFMessage13AddAttributeLEP20CNATFWUNSAFAttribute @ 2 NONAME
	_ZN18CNATFWUNSAFMessage15DeleteAttributeEt @ 3 NONAME
	_ZN18CNATFWUNSAFMessage15DetachAttributeEPK20CNATFWUNSAFAttribute @ 4 NONAME
	_ZN24CNATFWUNSAFDataAttribute4NewLERK6TDesC8 @ 5 NONAME
	_ZN24CNATFWUNSAFDataAttribute5NewLCERK6TDesC8 @ 6 NONAME
	_ZN25CNATFWUNSAFBindingRequest4NewLERK5TBuf8ILi12EE @ 7 NONAME
	_ZN25CNATFWUNSAFBindingRequest5NewLCERK5TBuf8ILi12EE @ 8 NONAME
	_ZN25CNATFWUNSAFConnectRequest4NewLERK5TBuf8ILi12EE @ 9 NONAME
	_ZN25CNATFWUNSAFConnectRequest5NewLCERK5TBuf8ILi12EE @ 10 NONAME
	_ZN25CNATFWUNSAFDataIndication4NewLERK5TBuf8ILi12EE @ 11 NONAME
	_ZN25CNATFWUNSAFDataIndication5NewLCERK5TBuf8ILi12EE @ 12 NONAME
	_ZN25CNATFWUNSAFMessageFactory4NewLEv @ 13 NONAME
	_ZN25CNATFWUNSAFMessageFactory5NewLCEv @ 14 NONAME
	_ZN25CNATFWUNSAFMessageFactoryD0Ev @ 15 NONAME
	_ZN25CNATFWUNSAFMessageFactoryD1Ev @ 16 NONAME
	_ZN25CNATFWUNSAFMessageFactoryD2Ev @ 17 NONAME
	_ZN25CNATFWUNSAFNonceAttribute4NewLERK6TDesC8 @ 18 NONAME
	_ZN25CNATFWUNSAFNonceAttribute5NewLCERK6TDesC8 @ 19 NONAME
	_ZN25CNATFWUNSAFRealmAttribute4NewLERK6TDesC8 @ 20 NONAME
	_ZN25CNATFWUNSAFRealmAttribute5NewLCERK6TDesC8 @ 21 NONAME
	_ZN25CNATFWUNSAFSendIndication4NewLERK5TBuf8ILi12EE @ 22 NONAME
	_ZN25CNATFWUNSAFSendIndication5NewLCERK5TBuf8ILi12EE @ 23 NONAME
	_ZN25CNATFWUNSAFTcpRelayPacket4NewLERK6TDesC8NS_10TRelayTypeE @ 24 NONAME
	_ZN25CNATFWUNSAFTcpRelayPacket5NewLCERK6TDesC8NS_10TRelayTypeE @ 25 NONAME
	_ZN26CNATFWUNSAFAllocateRequest4NewLERK5TBuf8ILi12EE @ 26 NONAME
	_ZN26CNATFWUNSAFAllocateRequest5NewLCERK5TBuf8ILi12EE @ 27 NONAME
	_ZN26CNATFWUNSAFBindingResponse4NewLERK5TBuf8ILi12EE @ 28 NONAME
	_ZN26CNATFWUNSAFBindingResponse5NewLCERK5TBuf8ILi12EE @ 29 NONAME
	_ZN26CNATFWUNSAFServerAttribute4NewLERK6TDesC8 @ 30 NONAME
	_ZN26CNATFWUNSAFServerAttribute5NewLCERK6TDesC8 @ 31 NONAME
	_ZN27CNATFWUNSAFAddressAttribute7AddressEv @ 32 NONAME
	_ZN27CNATFWUNSAFXorOnlyAttribute4NewLEv @ 33 NONAME
	_ZN27CNATFWUNSAFXorOnlyAttribute5NewLCEv @ 34 NONAME
	_ZN28CNATFWUNSAFBindingIndication4NewLERK5TBuf8ILi12EE @ 35 NONAME
	_ZN28CNATFWUNSAFBindingIndication5NewLCERK5TBuf8ILi12EE @ 36 NONAME
	_ZN28CNATFWUNSAFLifetimeAttribute4NewLEi @ 37 NONAME
	_ZN28CNATFWUNSAFLifetimeAttribute5NewLCEi @ 38 NONAME
	_ZN28CNATFWUNSAFPasswordAttribute4NewLERK6TDesC8 @ 39 NONAME
	_ZN28CNATFWUNSAFPasswordAttribute5NewLCERK6TDesC8 @ 40 NONAME
	_ZN28CNATFWUNSAFPriorityAttribute4NewLEj @ 41 NONAME
	_ZN28CNATFWUNSAFPriorityAttribute5NewLCEj @ 42 NONAME
	_ZN28CNATFWUNSAFTimerValAttribute4NewLEj @ 43 NONAME
	_ZN28CNATFWUNSAFTimerValAttribute5NewLCEj @ 44 NONAME
	_ZN28CNATFWUNSAFUsernameAttribute4NewLERK6TDesC8 @ 45 NONAME
	_ZN28CNATFWUNSAFUsernameAttribute5NewLCERK6TDesC8 @ 46 NONAME
	_ZN29CNATFWUNSAFBandwidthAttribute4NewLEi @ 47 NONAME
	_ZN29CNATFWUNSAFBandwidthAttribute5NewLCEi @ 48 NONAME
	_ZN29CNATFWUNSAFErrorCodeAttribute4NewLEiRK6TDesC8 @ 49 NONAME
	_ZN29CNATFWUNSAFErrorCodeAttribute5NewLCEiRK6TDesC8 @ 50 NONAME
	_ZN30CNATFWUNSAFSharedSecretRequest4NewLERK5TBuf8ILi12EE @ 51 NONAME
	_ZN30CNATFWUNSAFSharedSecretRequest5NewLCERK5TBuf8ILi12EE @ 52 NONAME
	_ZN31CNATFWUNSAFBindingErrorResponse4NewLERK5TBuf8ILi12EE @ 53 NONAME
	_ZN31CNATFWUNSAFBindingErrorResponse5NewLCERK5TBuf8ILi12EE @ 54 NONAME
	_ZN31CNATFWUNSAFConnectStatAttribute4NewLENS_7TStatusE @ 55 NONAME
	_ZN31CNATFWUNSAFConnectStatAttribute5NewLCENS_7TStatusE @ 56 NONAME
	_ZN31CNATFWUNSAFMagicCookieAttribute4NewLEv @ 57 NONAME
	_ZN31CNATFWUNSAFMagicCookieAttribute5NewLCEv @ 58 NONAME
	_ZN31CNATFWUNSAFRequestedIpAttribute4NewLERK9TInetAddr @ 59 NONAME
	_ZN31CNATFWUNSAFRequestedIpAttribute5NewLCERK9TInetAddr @ 60 NONAME
	_ZN32CNATFWUNSAFTcpRelayPacketFactory4NewLEv @ 61 NONAME
	_ZN32CNATFWUNSAFTcpRelayPacketFactory5NewLCEv @ 62 NONAME
	_ZN32CNATFWUNSAFTcpRelayPacketFactoryD0Ev @ 63 NONAME
	_ZN32CNATFWUNSAFTcpRelayPacketFactoryD1Ev @ 64 NONAME
	_ZN32CNATFWUNSAFTcpRelayPacketFactoryD2Ev @ 65 NONAME
	_ZN32CNATFWUNSAFUseCandidateAttribute4NewLEv @ 66 NONAME
	_ZN32CNATFWUNSAFUseCandidateAttribute5NewLCEv @ 67 NONAME
	_ZN33CNATFWUNSAFIceControlledAttribute4NewLEy @ 68 NONAME
	_ZN33CNATFWUNSAFIceControlledAttribute5NewLCEy @ 69 NONAME
	_ZN33CNATFWUNSAFMappedAddressAttribute4NewLERK9TInetAddr @ 70 NONAME
	_ZN33CNATFWUNSAFMappedAddressAttribute5NewLCERK9TInetAddr @ 71 NONAME
	_ZN33CNATFWUNSAFReflectedFromAttribute4NewLERK9TInetAddr @ 72 NONAME
	_ZN33CNATFWUNSAFReflectedFromAttribute5NewLCERK9TInetAddr @ 73 NONAME
	_ZN33CNATFWUNSAFRemoteAddressAttribute4NewLERK9TInetAddr @ 74 NONAME
	_ZN33CNATFWUNSAFRemoteAddressAttribute5NewLCERK9TInetAddr @ 75 NONAME
	_ZN33CNATFWUNSAFSourceAddressAttribute4NewLERK9TInetAddr @ 76 NONAME
	_ZN33CNATFWUNSAFSourceAddressAttribute5NewLCERK9TInetAddr @ 77 NONAME
	_ZN34CNATFWUNSAFChangedAddressAttribute4NewLERK9TInetAddr @ 78 NONAME
	_ZN34CNATFWUNSAFChangedAddressAttribute5NewLCERK9TInetAddr @ 79 NONAME
	_ZN34CNATFWUNSAFIceControllingAttribute4NewLEy @ 80 NONAME
	_ZN34CNATFWUNSAFIceControllingAttribute5NewLCEy @ 81 NONAME
	_ZN36CNATFWUNSAFMessageIntegrityAttribute22UseLongTermCredentialsEi @ 82 NONAME
	_ZN36CNATFWUNSAFMessageIntegrityAttribute4NewLERK6TDesC8R8CBufBasei @ 83 NONAME
	_ZN36CNATFWUNSAFMessageIntegrityAttribute5NewLCERK6TDesC8R8CBufBasei @ 84 NONAME
	_ZN36CNATFWUNSAFXorMappedAddressAttribute23SetTransactionIDAndXorLERK5TBuf8ILi12EE @ 85 NONAME
	_ZN36CNATFWUNSAFXorMappedAddressAttribute4NewLERK9TInetAddrRK5TBuf8ILi12EE @ 86 NONAME
	_ZN36CNATFWUNSAFXorMappedAddressAttribute5NewLCERK9TInetAddrRK5TBuf8ILi12EE @ 87 NONAME
	_ZN37CNATFWUNSAFUnknownAttributesAttribute4NewLEv @ 88 NONAME
	_ZN37CNATFWUNSAFUnknownAttributesAttribute5NewLCEv @ 89 NONAME
	_ZN37CNATFWUNSAFUnknownAttributesAttributeD0Ev @ 90 NONAME
	_ZN37CNATFWUNSAFUnknownAttributesAttributeD1Ev @ 91 NONAME
	_ZN37CNATFWUNSAFUnknownAttributesAttributeD2Ev @ 92 NONAME
	_ZN38CNATFWUNSAFDestinationAddressAttribute4NewLERK9TInetAddr @ 93 NONAME
	_ZN38CNATFWUNSAFDestinationAddressAttribute5NewLCERK9TInetAddr @ 94 NONAME
	_ZN38CNATFWUNSAFRequestedPortPropsAttribute4NewLENS_18TPortAlignmentPrefEt @ 95 NONAME
	_ZN38CNATFWUNSAFRequestedPortPropsAttribute5NewLCENS_18TPortAlignmentPrefEt @ 96 NONAME
	_ZN38CNATFWUNSAFRequestedTransportAttribute4NewLENS_18TTransportProtocolE @ 97 NONAME
	_ZN38CNATFWUNSAFRequestedTransportAttribute5NewLCENS_18TTransportProtocolE @ 98 NONAME
	_ZN38CNATFWUNSAFSetActiveDestinationRequest4NewLERK5TBuf8ILi12EE @ 99 NONAME
	_ZN38CNATFWUNSAFSetActiveDestinationRequest5NewLCERK5TBuf8ILi12EE @ 100 NONAME
	_ZNK18CNATFWUNSAFMessage12HasAttributeEN20CNATFWUNSAFAttribute5TTypeE @ 101 NONAME
	_ZNK18CNATFWUNSAFMessage13TransactionIDEv @ 102 NONAME
	_ZNK18CNATFWUNSAFMessage29HasUnknownMandatoryAttributesEv @ 103 NONAME
	_ZNK18CNATFWUNSAFMessage7EncodeLERK6TDesC8i @ 104 NONAME
	_ZNK18CNATFWUNSAFMessage7EncodeLEv @ 105 NONAME
	_ZNK18CNATFWUNSAFMessage9AttributeEN20CNATFWUNSAFAttribute5TTypeE @ 106 NONAME
	_ZNK24CNATFWUNSAFTextAttribute5ValueEv @ 107 NONAME
	_ZNK25CNATFWUNSAFMessageFactory7DecodeLERK6TDesC8 @ 108 NONAME
	_ZNK25CNATFWUNSAFNonceAttribute5ValueEv @ 109 NONAME
	_ZNK25CNATFWUNSAFRealmAttribute5ValueEv @ 110 NONAME
	_ZNK25CNATFWUNSAFTcpRelayPacket4DataEv @ 111 NONAME
	_ZNK25CNATFWUNSAFTcpRelayPacket4TypeEv @ 112 NONAME
	_ZNK27CNATFWUNSAFAddressAttribute7AddressEv @ 113 NONAME
	_ZNK28CNATFWUNSAFLifetimeAttribute8LifetimeEv @ 114 NONAME
	_ZNK28CNATFWUNSAFPriorityAttribute8PriorityEv @ 115 NONAME
	_ZNK28CNATFWUNSAFTimerValAttribute8TimerValEv @ 116 NONAME
	_ZNK29CNATFWUNSAFBandwidthAttribute9BandwidthEv @ 117 NONAME
	_ZNK29CNATFWUNSAFErrorCodeAttribute12ReasonPhraseEv @ 118 NONAME
	_ZNK29CNATFWUNSAFErrorCodeAttribute12ResponseCodeEv @ 119 NONAME
	_ZNK31CNATFWUNSAFConnectStatAttribute16ConnectionStatusEv @ 120 NONAME
	_ZNK31CNATFWUNSAFFingerprintAttribute17CheckFingerprintLERK6TDesC8 @ 121 NONAME
	_ZNK31CNATFWUNSAFMagicCookieAttribute11MagicCookieEv @ 122 NONAME
	_ZNK32CNATFWUNSAFTcpRelayPacketFactory7DecodeLERK6TDesC8 @ 123 NONAME
	_ZNK33CNATFWUNSAFIceControlledAttribute13IceControlledEv @ 124 NONAME
	_ZNK34CNATFWUNSAFIceControllingAttribute14IceControllingEv @ 125 NONAME
	_ZNK36CNATFWUNSAFMessageIntegrityAttribute22CheckMessageIntegrityLERK6TDesC8S2_ @ 126 NONAME
	_ZNK37CNATFWUNSAFUnknownAttributesAttribute19ContainedAttributesEv @ 127 NONAME
	_ZNK38CNATFWUNSAFRequestedPortPropsAttribute17PortAlignmentPrefEv @ 128 NONAME
	_ZNK38CNATFWUNSAFRequestedPortPropsAttribute4PortEv @ 129 NONAME
	_ZNK38CNATFWUNSAFRequestedTransportAttribute17TransportProtocolEv @ 130 NONAME
	_ZTI18CNATFWUNSAFMessage @ 131 NONAME ; #<TI>#
	_ZTI20CNATFWUNSAFAttribute @ 132 NONAME ; #<TI>#
	_ZTI24CNATFWUNSAFDataAttribute @ 133 NONAME ; #<TI>#
	_ZTI24CNATFWUNSAFTextAttribute @ 134 NONAME ; #<TI>#
	_ZTI25CNATFWUNSAFBindingRequest @ 135 NONAME ; #<TI>#
	_ZTI25CNATFWUNSAFConnectRequest @ 136 NONAME ; #<TI>#
	_ZTI25CNATFWUNSAFDataIndication @ 137 NONAME ; #<TI>#
	_ZTI25CNATFWUNSAFMessageFactory @ 138 NONAME ; #<TI>#
	_ZTI25CNATFWUNSAFNonceAttribute @ 139 NONAME ; #<TI>#
	_ZTI25CNATFWUNSAFRealmAttribute @ 140 NONAME ; #<TI>#
	_ZTI25CNATFWUNSAFSendIndication @ 141 NONAME ; #<TI>#
	_ZTI25CNATFWUNSAFTcpRelayPacket @ 142 NONAME ; #<TI>#
	_ZTI26CNATFWUNSAFAllocateRequest @ 143 NONAME ; #<TI>#
	_ZTI26CNATFWUNSAFBindingResponse @ 144 NONAME ; #<TI>#
	_ZTI26CNATFWUNSAFConnectResponse @ 145 NONAME ; #<TI>#
	_ZTI26CNATFWUNSAFServerAttribute @ 146 NONAME ; #<TI>#
	_ZTI27CNATFWUNSAFAddressAttribute @ 147 NONAME ; #<TI>#
	_ZTI27CNATFWUNSAFAllocateResponse @ 148 NONAME ; #<TI>#
	_ZTI27CNATFWUNSAFXorOnlyAttribute @ 149 NONAME ; #<TI>#
	_ZTI28CNATFWUNSAFBindingIndication @ 150 NONAME ; #<TI>#
	_ZTI28CNATFWUNSAFLifetimeAttribute @ 151 NONAME ; #<TI>#
	_ZTI28CNATFWUNSAFPasswordAttribute @ 152 NONAME ; #<TI>#
	_ZTI28CNATFWUNSAFPriorityAttribute @ 153 NONAME ; #<TI>#
	_ZTI28CNATFWUNSAFTimerValAttribute @ 154 NONAME ; #<TI>#
	_ZTI28CNATFWUNSAFUsernameAttribute @ 155 NONAME ; #<TI>#
	_ZTI29CNATFWUNSAFBandwidthAttribute @ 156 NONAME ; #<TI>#
	_ZTI29CNATFWUNSAFErrorCodeAttribute @ 157 NONAME ; #<TI>#
	_ZTI30CNATFWUNSAFSharedSecretRequest @ 158 NONAME ; #<TI>#
	_ZTI31CNATFWUNSAFBindingErrorResponse @ 159 NONAME ; #<TI>#
	_ZTI31CNATFWUNSAFConnectErrorResponse @ 160 NONAME ; #<TI>#
	_ZTI31CNATFWUNSAFConnectStatAttribute @ 161 NONAME ; #<TI>#
	_ZTI31CNATFWUNSAFFingerprintAttribute @ 162 NONAME ; #<TI>#
	_ZTI31CNATFWUNSAFMagicCookieAttribute @ 163 NONAME ; #<TI>#
	_ZTI31CNATFWUNSAFRequestedIpAttribute @ 164 NONAME ; #<TI>#
	_ZTI31CNATFWUNSAFSharedSecretResponse @ 165 NONAME ; #<TI>#
	_ZTI32CNATFWUNSAFAllocateErrorResponse @ 166 NONAME ; #<TI>#
	_ZTI32CNATFWUNSAFRelayAddressAttribute @ 167 NONAME ; #<TI>#
	_ZTI32CNATFWUNSAFTcpRelayPacketFactory @ 168 NONAME ; #<TI>#
	_ZTI32CNATFWUNSAFUseCandidateAttribute @ 169 NONAME ; #<TI>#
	_ZTI33CNATFWUNSAFChangeRequestAttribute @ 170 NONAME ; #<TI>#
	_ZTI33CNATFWUNSAFIceControlledAttribute @ 171 NONAME ; #<TI>#
	_ZTI33CNATFWUNSAFMappedAddressAttribute @ 172 NONAME ; #<TI>#
	_ZTI33CNATFWUNSAFReflectedFromAttribute @ 173 NONAME ; #<TI>#
	_ZTI33CNATFWUNSAFRemoteAddressAttribute @ 174 NONAME ; #<TI>#
	_ZTI33CNATFWUNSAFSourceAddressAttribute @ 175 NONAME ; #<TI>#
	_ZTI34CNATFWUNSAFChangedAddressAttribute @ 176 NONAME ; #<TI>#
	_ZTI34CNATFWUNSAFConnectStatusIndication @ 177 NONAME ; #<TI>#
	_ZTI34CNATFWUNSAFIceControllingAttribute @ 178 NONAME ; #<TI>#
	_ZTI35CNATFWUNSAFAlternateServerAttribute @ 179 NONAME ; #<TI>#
	_ZTI35CNATFWUNSAFResponseAddressAttribute @ 180 NONAME ; #<TI>#
	_ZTI36CNATFWUNSAFMessageIntegrityAttribute @ 181 NONAME ; #<TI>#
	_ZTI36CNATFWUNSAFSharedSecretErrorResponse @ 182 NONAME ; #<TI>#
	_ZTI36CNATFWUNSAFXorMappedAddressAttribute @ 183 NONAME ; #<TI>#
	_ZTI37CNATFWUNSAFUnknownAttributesAttribute @ 184 NONAME ; #<TI>#
	_ZTI38CNATFWUNSAFDestinationAddressAttribute @ 185 NONAME ; #<TI>#
	_ZTI38CNATFWUNSAFRequestedPortPropsAttribute @ 186 NONAME ; #<TI>#
	_ZTI38CNATFWUNSAFRequestedTransportAttribute @ 187 NONAME ; #<TI>#
	_ZTI38CNATFWUNSAFSetActiveDestinationRequest @ 188 NONAME ; #<TI>#
	_ZTI39CNATFWUNSAFSetActiveDestinationResponse @ 189 NONAME ; #<TI>#
	_ZTI44CNATFWUNSAFSetActiveDestinationErrorResponse @ 190 NONAME ; #<TI>#
	_ZTV18CNATFWUNSAFMessage @ 191 NONAME ; #<VT>#
	_ZTV20CNATFWUNSAFAttribute @ 192 NONAME ; #<VT>#
	_ZTV24CNATFWUNSAFDataAttribute @ 193 NONAME ; #<VT>#
	_ZTV24CNATFWUNSAFTextAttribute @ 194 NONAME ; #<VT>#
	_ZTV25CNATFWUNSAFBindingRequest @ 195 NONAME ; #<VT>#
	_ZTV25CNATFWUNSAFConnectRequest @ 196 NONAME ; #<VT>#
	_ZTV25CNATFWUNSAFDataIndication @ 197 NONAME ; #<VT>#
	_ZTV25CNATFWUNSAFMessageFactory @ 198 NONAME ; #<VT>#
	_ZTV25CNATFWUNSAFNonceAttribute @ 199 NONAME ; #<VT>#
	_ZTV25CNATFWUNSAFRealmAttribute @ 200 NONAME ; #<VT>#
	_ZTV25CNATFWUNSAFSendIndication @ 201 NONAME ; #<VT>#
	_ZTV25CNATFWUNSAFTcpRelayPacket @ 202 NONAME ; #<VT>#
	_ZTV26CNATFWUNSAFAllocateRequest @ 203 NONAME ; #<VT>#
	_ZTV26CNATFWUNSAFBindingResponse @ 204 NONAME ; #<VT>#
	_ZTV26CNATFWUNSAFConnectResponse @ 205 NONAME ; #<VT>#
	_ZTV26CNATFWUNSAFServerAttribute @ 206 NONAME ; #<VT>#
	_ZTV27CNATFWUNSAFAddressAttribute @ 207 NONAME ; #<VT>#
	_ZTV27CNATFWUNSAFAllocateResponse @ 208 NONAME ; #<VT>#
	_ZTV27CNATFWUNSAFXorOnlyAttribute @ 209 NONAME ; #<VT>#
	_ZTV28CNATFWUNSAFBindingIndication @ 210 NONAME ; #<VT>#
	_ZTV28CNATFWUNSAFLifetimeAttribute @ 211 NONAME ; #<VT>#
	_ZTV28CNATFWUNSAFPasswordAttribute @ 212 NONAME ; #<VT>#
	_ZTV28CNATFWUNSAFPriorityAttribute @ 213 NONAME ; #<VT>#
	_ZTV28CNATFWUNSAFTimerValAttribute @ 214 NONAME ; #<VT>#
	_ZTV28CNATFWUNSAFUsernameAttribute @ 215 NONAME ; #<VT>#
	_ZTV29CNATFWUNSAFBandwidthAttribute @ 216 NONAME ; #<VT>#
	_ZTV29CNATFWUNSAFErrorCodeAttribute @ 217 NONAME ; #<VT>#
	_ZTV30CNATFWUNSAFSharedSecretRequest @ 218 NONAME ; #<VT>#
	_ZTV31CNATFWUNSAFBindingErrorResponse @ 219 NONAME ; #<VT>#
	_ZTV31CNATFWUNSAFConnectErrorResponse @ 220 NONAME ; #<VT>#
	_ZTV31CNATFWUNSAFConnectStatAttribute @ 221 NONAME ; #<VT>#
	_ZTV31CNATFWUNSAFFingerprintAttribute @ 222 NONAME ; #<VT>#
	_ZTV31CNATFWUNSAFMagicCookieAttribute @ 223 NONAME ; #<VT>#
	_ZTV31CNATFWUNSAFRequestedIpAttribute @ 224 NONAME ; #<VT>#
	_ZTV31CNATFWUNSAFSharedSecretResponse @ 225 NONAME ; #<VT>#
	_ZTV32CNATFWUNSAFAllocateErrorResponse @ 226 NONAME ; #<VT>#
	_ZTV32CNATFWUNSAFRelayAddressAttribute @ 227 NONAME ; #<VT>#
	_ZTV32CNATFWUNSAFTcpRelayPacketFactory @ 228 NONAME ; #<VT>#
	_ZTV32CNATFWUNSAFUseCandidateAttribute @ 229 NONAME ; #<VT>#
	_ZTV33CNATFWUNSAFChangeRequestAttribute @ 230 NONAME ; #<VT>#
	_ZTV33CNATFWUNSAFIceControlledAttribute @ 231 NONAME ; #<VT>#
	_ZTV33CNATFWUNSAFMappedAddressAttribute @ 232 NONAME ; #<VT>#
	_ZTV33CNATFWUNSAFReflectedFromAttribute @ 233 NONAME ; #<VT>#
	_ZTV33CNATFWUNSAFRemoteAddressAttribute @ 234 NONAME ; #<VT>#
	_ZTV33CNATFWUNSAFSourceAddressAttribute @ 235 NONAME ; #<VT>#
	_ZTV34CNATFWUNSAFChangedAddressAttribute @ 236 NONAME ; #<VT>#
	_ZTV34CNATFWUNSAFConnectStatusIndication @ 237 NONAME ; #<VT>#
	_ZTV34CNATFWUNSAFIceControllingAttribute @ 238 NONAME ; #<VT>#
	_ZTV35CNATFWUNSAFAlternateServerAttribute @ 239 NONAME ; #<VT>#
	_ZTV35CNATFWUNSAFResponseAddressAttribute @ 240 NONAME ; #<VT>#
	_ZTV36CNATFWUNSAFMessageIntegrityAttribute @ 241 NONAME ; #<VT>#
	_ZTV36CNATFWUNSAFSharedSecretErrorResponse @ 242 NONAME ; #<VT>#
	_ZTV36CNATFWUNSAFXorMappedAddressAttribute @ 243 NONAME ; #<VT>#
	_ZTV37CNATFWUNSAFUnknownAttributesAttribute @ 244 NONAME ; #<VT>#
	_ZTV38CNATFWUNSAFDestinationAddressAttribute @ 245 NONAME ; #<VT>#
	_ZTV38CNATFWUNSAFRequestedPortPropsAttribute @ 246 NONAME ; #<VT>#
	_ZTV38CNATFWUNSAFRequestedTransportAttribute @ 247 NONAME ; #<VT>#
	_ZTV38CNATFWUNSAFSetActiveDestinationRequest @ 248 NONAME ; #<VT>#
	_ZTV39CNATFWUNSAFSetActiveDestinationResponse @ 249 NONAME ; #<VT>#
	_ZTV44CNATFWUNSAFSetActiveDestinationErrorResponse @ 250 NONAME ; #<VT>#
	_ZNK25CNATFWUNSAFTcpRelayPacket7EncodeLEv @ 251 NONAME

