EXPORTS
	_ZN11CMceCnCodec10SetBitrateEj @ 1 NONAME
	_ZN11CMceCnCodec11SetMaxPTimeEj @ 2 NONAME
	_ZN11CMceCnCodec12SetCodecModeEj @ 3 NONAME
	_ZN11CMceCnCodec14SetPayloadTypeEh @ 4 NONAME
	_ZN11CMceCnCodec15SetSamplingFreqEj @ 5 NONAME
	_ZN11CMceCnCodec18SetAllowedBitratesEj @ 6 NONAME
	_ZN11CMceCnCodec8SetPTimeEj @ 7 NONAME
	_ZN11CMceCnCodec9EnableVADEi @ 8 NONAME
	_ZN11CMceCnCodecD0Ev @ 9 NONAME
	_ZN11CMceCnCodecD1Ev @ 10 NONAME
	_ZN11CMceCnCodecD2Ev @ 11 NONAME
	_ZN11CMceInEvent7AcceptLEv @ 12 NONAME
	_ZN11CMceInEvent7NotifyLEP11CDesC8ArrayP6HBufC8S3_ @ 13 NONAME
	_ZN11CMceInEvent7RejectLEv @ 14 NONAME
	_ZN11CMceInEvent8RespondLERK6TDesC8mP11CDesC8ArrayP6HBufC8S6_ @ 15 NONAME
	_ZN11CMceInEventD0Ev @ 16 NONAME
	_ZN11CMceInEventD1Ev @ 17 NONAME
	_ZN11CMceInEventD2Ev @ 18 NONAME
	_ZN11CMceInRefer7AcceptLEv @ 19 NONAME
	_ZN11CMceInRefer7RejectLEv @ 20 NONAME
	_ZN11CMceInRefer8RespondLERK6TDesC8mP11CDesC8ArrayP6HBufC8S6_ @ 21 NONAME
	_ZN11CMceInReferD0Ev @ 22 NONAME
	_ZN11CMceInReferD1Ev @ 23 NONAME
	_ZN11CMceInReferD2Ev @ 24 NONAME
	_ZN11CMceManager14SetRtpObserverEP15MMceRtpObserver @ 25 NONAME
	_ZN11CMceManager15SetDtmfObserverEP16MMceDtmfObserver @ 26 NONAME
	_ZN11CMceManager16SetEventObserverEP17MMceEventObserver @ 27 NONAME
	_ZN11CMceManager16SetMediaObserverEP18MMceStreamObserver @ 28 NONAME
	_ZN11CMceManager16SetReferObserverEP17MMceReferObserver @ 29 NONAME
	_ZN11CMceManager18SetDefaultHeadersLEP11CDesC8ArrayS1_ @ 30 NONAME
	_ZN11CMceManager18SetInEventObserverEP19MMceInEventObserver @ 31 NONAME
	_ZN11CMceManager18SetInReferObserverEP19MMceInReferObserver @ 32 NONAME
	_ZN11CMceManager18SetSessionObserverEP19MMceSessionObserver @ 33 NONAME
	_ZN11CMceManager20SetInSessionObserverEP21MMceInSessionObserver @ 34 NONAME
	_ZN11CMceManager22SetTransactionObserverEP23MMceTransactionObserver @ 35 NONAME
	_ZN11CMceManager24SetInTransactionObserverEP25MMceInTransactionObserver @ 36 NONAME
	_ZN11CMceManager4NewLERK4TUidP28TMceTransactionDataContainer @ 37 NONAME
	_ZN11CMceManagerD0Ev @ 38 NONAME
	_ZN11CMceManagerD1Ev @ 39 NONAME
	_ZN11CMceManagerD2Ev @ 40 NONAME
	_ZN11CMceRtpSink4NewLEiP6HBufC8 @ 41 NONAME
	_ZN11CMceRtpSink4NewLEv @ 42 NONAME
	_ZN11CMceRtpSink5NewLCEv @ 43 NONAME
	_ZN11CMceRtpSink7EnableLEv @ 44 NONAME
	_ZN11CMceRtpSink7SendSRLEv @ 45 NONAME
	_ZN11CMceRtpSink7UpdateLEiP6HBufC8 @ 46 NONAME
	_ZN11CMceRtpSink8DisableLEv @ 47 NONAME
	_ZN11CMceRtpSinkD0Ev @ 48 NONAME
	_ZN11CMceRtpSinkD1Ev @ 49 NONAME
	_ZN11CMceRtpSinkD2Ev @ 50 NONAME
	_ZN11CMceSession10AddBundleLEP16CMceStreamBundle @ 51 NONAME
	_ZN11CMceSession10TerminateLEP11CDesC8ArrayP6HBufC8S3_ @ 52 NONAME
	_ZN11CMceSession12SendRequestLERK6TDesC8P11CDesC8ArrayP6HBufC8S6_ @ 53 NONAME
	_ZN11CMceSession12SetModifierLEmj @ 54 NONAME
	_ZN11CMceSession13RemoveBundleLER16CMceStreamBundle @ 55 NONAME
	_ZN11CMceSession13RemoveStreamLER15CMceMediaStream @ 56 NONAME
	_ZN11CMceSession13SendResponseLEmRK6TDesC8mP11CDesC8ArrayP6HBufC8S6_ @ 57 NONAME
	_ZN11CMceSession15SetServiceTypeLEm @ 58 NONAME
	_ZN11CMceSession16SessionSDPLinesLEv @ 59 NONAME
	_ZN11CMceSession19SetSessionSDPLinesLEP11CDesC8Array @ 60 NONAME
	_ZN11CMceSession7UpdateLEmP11CDesC8ArrayP6HBufC8S3_S1_ @ 61 NONAME
	_ZN12CMceAmrCodec10SetBitrateEj @ 62 NONAME
	_ZN12CMceAmrCodec11SetMaxPTimeEj @ 63 NONAME
	_ZN12CMceAmrCodec12SetCodecModeEj @ 64 NONAME
	_ZN12CMceAmrCodec14SetPayloadTypeEh @ 65 NONAME
	_ZN12CMceAmrCodec15SetSamplingFreqEj @ 66 NONAME
	_ZN12CMceAmrCodec18SetAllowedBitratesEj @ 67 NONAME
	_ZN12CMceAmrCodec8SetPTimeEj @ 68 NONAME
	_ZN12CMceAmrCodec9EnableVADEi @ 69 NONAME
	_ZN12CMceAmrCodecD0Ev @ 70 NONAME
	_ZN12CMceAmrCodecD1Ev @ 71 NONAME
	_ZN12CMceAmrCodecD2Ev @ 72 NONAME
	_ZN12CMceAvcCodec10SetBitrateEj @ 73 NONAME
	_ZN12CMceAvcCodec12SetCodecModeEj @ 74 NONAME
	_ZN12CMceAvcCodec13SetConfigKeyLERK6TDesC8 @ 75 NONAME
	_ZN12CMceAvcCodec13SetFrameRateLEd @ 76 NONAME
	_ZN12CMceAvcCodec14SetMaxBitrateLEj @ 77 NONAME
	_ZN12CMceAvcCodec14SetPayloadTypeEh @ 78 NONAME
	_ZN12CMceAvcCodec14SetResolutionLE5TSize @ 79 NONAME
	_ZN12CMceAvcCodec18SetAllowedBitratesEj @ 80 NONAME
	_ZN12CMceAvcCodec21SetAllowedFrameRatesLEj @ 81 NONAME
	_ZN12CMceAvcCodec22SetAllowedResolutionsLEj @ 82 NONAME
	_ZN12CMceAvcCodec35SetPreferredEncodingDecodingDeviceLE4TUid @ 83 NONAME
	_ZN12CMceAvcCodec4NewLE5TBuf8ILi20EE @ 84 NONAME
	_ZN12CMceAvcCodec5NewLCE5TBuf8ILi20EE @ 85 NONAME
	_ZN12CMceAvcCodecD0Ev @ 86 NONAME
	_ZN12CMceAvcCodecD1Ev @ 87 NONAME
	_ZN12CMceAvcCodecD2Ev @ 88 NONAME
	_ZN12CMceFileSink4NewLERK4TBufILi256EE @ 89 NONAME
	_ZN12CMceFileSink5NewLCERK4TBufILi256EE @ 90 NONAME
	_ZN12CMceFileSink7EnableLEv @ 91 NONAME
	_ZN12CMceFileSink8DisableLEv @ 92 NONAME
	_ZN12CMceFileSinkD0Ev @ 93 NONAME
	_ZN12CMceFileSinkD1Ev @ 94 NONAME
	_ZN12CMceFileSinkD2Ev @ 95 NONAME
	_ZN12CMceOutEvent10SubscribeLEP11CDesC8ArrayP6HBufC8S3_ @ 96 NONAME
	_ZN12CMceOutEvent4NewLER11CMceManagerR11CSIPProfileRK6TDesC8S6_mP6HBufC8 @ 97 NONAME
	_ZN12CMceOutEvent4NewLER11CMceSessionRK6TDesC8m @ 98 NONAME
	_ZN12CMceOutEvent4NewLER9CMceEventRK6TDesC8m @ 99 NONAME
	_ZN12CMceOutEvent4NewLER9CMceReferRK6TDesC8m @ 100 NONAME
	_ZN12CMceOutEvent7UpdateLEmP11CDesC8ArrayP6HBufC8S3_ @ 101 NONAME
	_ZN12CMceOutEventD0Ev @ 102 NONAME
	_ZN12CMceOutEventD1Ev @ 103 NONAME
	_ZN12CMceOutEventD2Ev @ 104 NONAME
	_ZN12CMceOutRefer4NewLER11CMceManagerR11CSIPProfileRK6TDesC8S6_N9CMceRefer5TTypeEP6HBufC8 @ 105 NONAME
	_ZN12CMceOutRefer4NewLER11CMceSessionRK6TDesC8N9CMceRefer5TTypeE @ 106 NONAME
	_ZN12CMceOutRefer4NewLER9CMceEventRK6TDesC8N9CMceRefer5TTypeE @ 107 NONAME
	_ZN12CMceOutRefer4NewLER9CMceReferRK6TDesC8NS0_5TTypeE @ 108 NONAME
	_ZN12CMceOutRefer6ReferLEP11CDesC8ArrayP6HBufC8S3_ @ 109 NONAME
	_ZN12CMceOutReferD0Ev @ 110 NONAME
	_ZN12CMceOutReferD1Ev @ 111 NONAME
	_ZN12CMceOutReferD2Ev @ 112 NONAME
	_ZN12CMceRedCodec10SetBitrateEj @ 113 NONAME
	_ZN12CMceRedCodec11SetMaxPTimeEj @ 114 NONAME
	_ZN12CMceRedCodec12SetCodecModeEj @ 115 NONAME
	_ZN12CMceRedCodec14SetPayloadTypeEh @ 116 NONAME
	_ZN12CMceRedCodec15SetSamplingFreqEj @ 117 NONAME
	_ZN12CMceRedCodec16RedPayloadTypesLER6RArrayIjE @ 118 NONAME
	_ZN12CMceRedCodec18SetAllowedBitratesEj @ 119 NONAME
	_ZN12CMceRedCodec19SetRedPayloadTypesLERK6RArrayIjE @ 120 NONAME
	_ZN12CMceRedCodec8SetPTimeEj @ 121 NONAME
	_ZN12CMceRedCodec9EnableVADEi @ 122 NONAME
	_ZN12CMceRedCodecD0Ev @ 123 NONAME
	_ZN12CMceRedCodecD1Ev @ 124 NONAME
	_ZN12CMceRedCodecD2Ev @ 125 NONAME
	_ZN13CMceDtmfCodec10SetBitrateEj @ 126 NONAME
	_ZN13CMceDtmfCodec11SetMaxPTimeEj @ 127 NONAME
	_ZN13CMceDtmfCodec12SetCodecModeEj @ 128 NONAME
	_ZN13CMceDtmfCodec14SetPayloadTypeEh @ 129 NONAME
	_ZN13CMceDtmfCodec15SetSamplingFreqEj @ 130 NONAME
	_ZN13CMceDtmfCodec18SetAllowedBitratesEj @ 131 NONAME
	_ZN13CMceDtmfCodec8SetPTimeEj @ 132 NONAME
	_ZN13CMceDtmfCodec9EnableVADEi @ 133 NONAME
	_ZN13CMceDtmfCodecD0Ev @ 134 NONAME
	_ZN13CMceDtmfCodecD1Ev @ 135 NONAME
	_ZN13CMceDtmfCodecD2Ev @ 136 NONAME
	_ZN13CMceG711Codec10SetBitrateEj @ 137 NONAME
	_ZN13CMceG711Codec11SetMaxPTimeEj @ 138 NONAME
	_ZN13CMceG711Codec12SetCodecModeEj @ 139 NONAME
	_ZN13CMceG711Codec14SetPayloadTypeEh @ 140 NONAME
	_ZN13CMceG711Codec15SetSamplingFreqEj @ 141 NONAME
	_ZN13CMceG711Codec18SetAllowedBitratesEj @ 142 NONAME
	_ZN13CMceG711Codec8SetPTimeEj @ 143 NONAME
	_ZN13CMceG711Codec9EnableVADEi @ 144 NONAME
	_ZN13CMceG711CodecD0Ev @ 145 NONAME
	_ZN13CMceG711CodecD1Ev @ 146 NONAME
	_ZN13CMceG711CodecD2Ev @ 147 NONAME
	_ZN13CMceG729Codec10SetBitrateEj @ 148 NONAME
	_ZN13CMceG729Codec11SetMaxPTimeEj @ 149 NONAME
	_ZN13CMceG729Codec12SetCodecModeEj @ 150 NONAME
	_ZN13CMceG729Codec14SetPayloadTypeEh @ 151 NONAME
	_ZN13CMceG729Codec15SetSamplingFreqEj @ 152 NONAME
	_ZN13CMceG729Codec18SetAllowedBitratesEj @ 153 NONAME
	_ZN13CMceG729Codec8SetPTimeEj @ 154 NONAME
	_ZN13CMceG729Codec9EnableVADEi @ 155 NONAME
	_ZN13CMceG729CodecD0Ev @ 156 NONAME
	_ZN13CMceG729CodecD1Ev @ 157 NONAME
	_ZN13CMceG729CodecD2Ev @ 158 NONAME
	_ZN13CMceH263Codec10SetBitrateEj @ 159 NONAME
	_ZN13CMceH263Codec12SetCodecModeEj @ 160 NONAME
	_ZN13CMceH263Codec13SetConfigKeyLERK6TDesC8 @ 161 NONAME
	_ZN13CMceH263Codec13SetFrameRateLEd @ 162 NONAME
	_ZN13CMceH263Codec14SetMaxBitrateLEj @ 163 NONAME
	_ZN13CMceH263Codec14SetPayloadTypeEh @ 164 NONAME
	_ZN13CMceH263Codec14SetResolutionLE5TSize @ 165 NONAME
	_ZN13CMceH263Codec18SetAllowedBitratesEj @ 166 NONAME
	_ZN13CMceH263Codec21SetAllowedFrameRatesLEj @ 167 NONAME
	_ZN13CMceH263Codec22SetAllowedResolutionsLEj @ 168 NONAME
	_ZN13CMceH263Codec35SetPreferredEncodingDecodingDeviceLE4TUid @ 169 NONAME
	_ZN13CMceH263Codec4NewLE5TBuf8ILi20EE @ 170 NONAME
	_ZN13CMceH263Codec5NewLCE5TBuf8ILi20EE @ 171 NONAME
	_ZN13CMceH263CodecD0Ev @ 172 NONAME
	_ZN13CMceH263CodecD1Ev @ 173 NONAME
	_ZN13CMceH263CodecD2Ev @ 174 NONAME
	_ZN13CMceInSession5RingLEP11CDesC8ArrayP6HBufC8S3_ @ 175 NONAME
	_ZN13CMceInSession7AcceptLERK6TDesC8mP11CDesC8ArrayP6HBufC8S6_ @ 176 NONAME
	_ZN13CMceInSession7AcceptLEv @ 177 NONAME
	_ZN13CMceInSession7RejectLERK6TDesC8mP11CDesC8ArrayP6HBufC8S6_ @ 178 NONAME
	_ZN13CMceInSession7RejectLEv @ 179 NONAME
	_ZN13CMceInSession8RespondLERK6TDesC8mP11CDesC8ArrayP6HBufC8S6_ @ 180 NONAME
	_ZN13CMceInSessionD0Ev @ 181 NONAME
	_ZN13CMceInSessionD1Ev @ 182 NONAME
	_ZN13CMceInSessionD2Ev @ 183 NONAME
	_ZN13CMceMediaSinkD0Ev @ 184 NONAME
	_ZN13CMceMediaSinkD1Ev @ 185 NONAME
	_ZN13CMceMediaSinkD2Ev @ 186 NONAME
	_ZN13CMceMicSource4NewLEv @ 187 NONAME
	_ZN13CMceMicSource5NewLCEv @ 188 NONAME
	_ZN13CMceMicSource7EnableLEv @ 189 NONAME
	_ZN13CMceMicSource8DisableLEv @ 190 NONAME
	_ZN13CMceMicSource8SetGainLEi @ 191 NONAME
	_ZN13CMceMicSourceD0Ev @ 192 NONAME
	_ZN13CMceMicSourceD1Ev @ 193 NONAME
	_ZN13CMceMicSourceD2Ev @ 194 NONAME
	_ZN13CMceRtpSource11EnableSsrcLEj @ 195 NONAME
	_ZN13CMceRtpSource12DisableSsrcLEj @ 196 NONAME
	_ZN13CMceRtpSource14IsSsrcEnabledLEj @ 197 NONAME
	_ZN13CMceRtpSource22EnableInactivityTimerLEm @ 198 NONAME
	_ZN13CMceRtpSource23DisableInactivityTimerLEv @ 199 NONAME
	_ZN13CMceRtpSource4NewLEjjmP6HBufC8 @ 200 NONAME
	_ZN13CMceRtpSource5NewLCEjjmP6HBufC8 @ 201 NONAME
	_ZN13CMceRtpSource7EnableLEv @ 202 NONAME
	_ZN13CMceRtpSource7SendRRLEv @ 203 NONAME
	_ZN13CMceRtpSource7UpdateLEjjmP6HBufC8 @ 204 NONAME
	_ZN13CMceRtpSource8DisableLEv @ 205 NONAME
	_ZN13CMceRtpSourceD0Ev @ 206 NONAME
	_ZN13CMceRtpSourceD1Ev @ 207 NONAME
	_ZN13CMceRtpSourceD2Ev @ 208 NONAME
	_ZN13CMceiLBCCodec10SetBitrateEj @ 209 NONAME
	_ZN13CMceiLBCCodec11SetMaxPTimeEj @ 210 NONAME
	_ZN13CMceiLBCCodec12SetCodecModeEj @ 211 NONAME
	_ZN13CMceiLBCCodec14SetPayloadTypeEh @ 212 NONAME
	_ZN13CMceiLBCCodec15SetSamplingFreqEj @ 213 NONAME
	_ZN13CMceiLBCCodec18SetAllowedBitratesEj @ 214 NONAME
	_ZN13CMceiLBCCodec8SetPTimeEj @ 215 NONAME
	_ZN13CMceiLBCCodec9EnableVADEi @ 216 NONAME
	_ZN13CMceiLBCCodecD0Ev @ 217 NONAME
	_ZN13CMceiLBCCodecD1Ev @ 218 NONAME
	_ZN13CMceiLBCCodecD2Ev @ 219 NONAME
	_ZN14CMceAmrWbCodecD0Ev @ 220 NONAME
	_ZN14CMceAmrWbCodecD1Ev @ 221 NONAME
	_ZN14CMceAmrWbCodecD2Ev @ 222 NONAME
	_ZN14CMceFileSource10TranscodeLERK4TBufILi256EE @ 223 NONAME
	_ZN14CMceFileSource12SetPositionLERK25TTimeIntervalMicroSeconds @ 224 NONAME
	_ZN14CMceFileSource14SetFastRewindLEi @ 225 NONAME
	_ZN14CMceFileSource15SetFastForwardLEi @ 226 NONAME
	_ZN14CMceFileSource16CancelTranscodeLEv @ 227 NONAME
	_ZN14CMceFileSource19CurrentMediaElementEj @ 228 NONAME
	_ZN14CMceFileSource23SetCurrentMediaElementLEji @ 229 NONAME
	_ZN14CMceFileSource4NewLER11CMceManagerRK4TBufILi256EE @ 230 NONAME
	_ZN14CMceFileSource5NewLCER11CMceManagerRK4TBufILi256EE @ 231 NONAME
	_ZN14CMceFileSource7EnableLEv @ 232 NONAME
	_ZN14CMceFileSource7UpdateLERK4TBufILi256EE @ 233 NONAME
	_ZN14CMceFileSource8DisableLEv @ 234 NONAME
	_ZN14CMceFileSourceD0Ev @ 235 NONAME
	_ZN14CMceFileSourceD1Ev @ 236 NONAME
	_ZN14CMceFileSourceD2Ev @ 237 NONAME
	_ZN14CMceOutSession10EstablishLEmP11CDesC8ArrayP6HBufC8S3_S1_ @ 238 NONAME
	_ZN14CMceOutSession4NewLER11CMceManagerR11CSIPProfileRK6TDesC8P6HBufC8 @ 239 NONAME
	_ZN14CMceOutSession4NewLER11CMceManagermRK6TDesC8S4_P11CDesC8Array @ 240 NONAME
	_ZN14CMceOutSession4NewLER9CMceEvent @ 241 NONAME
	_ZN14CMceOutSession4NewLER9CMceRefer @ 242 NONAME
	_ZN14CMceOutSession7CancelLEv @ 243 NONAME
	_ZN14CMceOutSessionD0Ev @ 244 NONAME
	_ZN14CMceOutSessionD1Ev @ 245 NONAME
	_ZN14CMceOutSessionD2Ev @ 246 NONAME
	_ZN15CMceAudioStream12RemoveCodecLER14CMceAudioCodec @ 247 NONAME
	_ZN15CMceAudioStream14ReplaceCodecsLEP13RPointerArrayI14CMceAudioCodecE @ 248 NONAME
	_ZN15CMceAudioStream4NewLEv @ 249 NONAME
	_ZN15CMceAudioStream5NewLCEv @ 250 NONAME
	_ZN15CMceAudioStream6CodecsEv @ 251 NONAME
	_ZN15CMceAudioStream9AddCodecLEP14CMceAudioCodec @ 252 NONAME
	_ZN15CMceAudioStreamD0Ev @ 253 NONAME
	_ZN15CMceAudioStreamD1Ev @ 254 NONAME
	_ZN15CMceAudioStreamD2Ev @ 255 NONAME
	_ZN15CMceDisplaySink10SetDisplayER7RWindowR9CWindowGc @ 256 NONAME
	_ZN15CMceDisplaySink12DisplayRectLEv @ 257 NONAME
	_ZN15CMceDisplaySink12SetPriorityLEj @ 258 NONAME
	_ZN15CMceDisplaySink12SetRotationLENS_9TRotationE @ 259 NONAME
	_ZN15CMceDisplaySink15SetDisplayRectLERK5TRect @ 260 NONAME
	_ZN15CMceDisplaySink16SetDisplayIndexLEi @ 261 NONAME
	_ZN15CMceDisplaySink4NewLER11CMceManager @ 262 NONAME
	_ZN15CMceDisplaySink5NewLCER11CMceManager @ 263 NONAME
	_ZN15CMceDisplaySink7EnableLEv @ 264 NONAME
	_ZN15CMceDisplaySink8DisableLEv @ 265 NONAME
	_ZN15CMceDisplaySink9PriorityLEv @ 266 NONAME
	_ZN15CMceDisplaySink9RotationLEv @ 267 NONAME
	_ZN15CMceDisplaySinkD0Ev @ 268 NONAME
	_ZN15CMceDisplaySinkD1Ev @ 269 NONAME
	_ZN15CMceDisplaySinkD2Ev @ 270 NONAME
	_ZN15CMceMediaSourceD0Ev @ 271 NONAME
	_ZN15CMceMediaSourceD1Ev @ 272 NONAME
	_ZN15CMceMediaSourceD2Ev @ 273 NONAME
	_ZN15CMceMediaStream10SetSourceLEP15CMceMediaSource @ 274 NONAME
	_ZN15CMceMediaStream11RemoveSinkLER13CMceMediaSink @ 275 NONAME
	_ZN15CMceMediaStream18SetLocalMediaPortLEj @ 276 NONAME
	_ZN15CMceMediaStream20MediaAttributeLinesLEv @ 277 NONAME
	_ZN15CMceMediaStream23SetMediaAttributeLinesLEP11CDesC8Array @ 278 NONAME
	_ZN15CMceMediaStream5BindLEPS_ @ 279 NONAME
	_ZN15CMceMediaStream8AddSinkLEP13CMceMediaSink @ 280 NONAME
	_ZN15CMceMediaStreamD0Ev @ 281 NONAME
	_ZN15CMceMediaStreamD1Ev @ 282 NONAME
	_ZN15CMceMediaStreamD2Ev @ 283 NONAME
	_ZN15CMceSpeakerSink10SetVolumeLEi @ 284 NONAME
	_ZN15CMceSpeakerSink11SetRoutingLEi @ 285 NONAME
	_ZN15CMceSpeakerSink4NewLEv @ 286 NONAME
	_ZN15CMceSpeakerSink5NewLCEv @ 287 NONAME
	_ZN15CMceSpeakerSink7EnableLEv @ 288 NONAME
	_ZN15CMceSpeakerSink8DisableLEv @ 289 NONAME
	_ZN15CMceSpeakerSinkD0Ev @ 290 NONAME
	_ZN15CMceSpeakerSinkD1Ev @ 291 NONAME
	_ZN15CMceSpeakerSinkD2Ev @ 292 NONAME
	_ZN15CMceVideoStream12RemoveCodecLER14CMceVideoCodec @ 293 NONAME
	_ZN15CMceVideoStream14ReplaceCodecsLEP13RPointerArrayI14CMceVideoCodecE @ 294 NONAME
	_ZN15CMceVideoStream4NewLEv @ 295 NONAME
	_ZN15CMceVideoStream5NewLCEv @ 296 NONAME
	_ZN15CMceVideoStream6CodecsEv @ 297 NONAME
	_ZN15CMceVideoStream9AddCodecLEP14CMceVideoCodec @ 298 NONAME
	_ZN15CMceVideoStreamD0Ev @ 299 NONAME
	_ZN15CMceVideoStreamD1Ev @ 300 NONAME
	_ZN15CMceVideoStreamD2Ev @ 301 NONAME
	_ZN16CMceCameraSource11BrightnessLEv @ 302 NONAME
	_ZN16CMceCameraSource11ZoomFactorLEv @ 303 NONAME
	_ZN16CMceCameraSource12SetContrastLEi @ 304 NONAME
	_ZN16CMceCameraSource12SetExposureLEN7CCamera9TExposureE @ 305 NONAME
	_ZN16CMceCameraSource13WhiteBalanceLEv @ 306 NONAME
	_ZN16CMceCameraSource14SetBrightnessLEi @ 307 NONAME
	_ZN16CMceCameraSource14SetZoomFactorLEi @ 308 NONAME
	_ZN16CMceCameraSource15SetCameraIndexLEi @ 309 NONAME
	_ZN16CMceCameraSource16SetWhiteBalanceLEN7CCamera13TWhiteBalanceE @ 310 NONAME
	_ZN16CMceCameraSource18DigitalZoomFactorLEv @ 311 NONAME
	_ZN16CMceCameraSource21SetDigitalZoomFactorLEi @ 312 NONAME
	_ZN16CMceCameraSource4NewLER11CMceManager @ 313 NONAME
	_ZN16CMceCameraSource5NewLCER11CMceManager @ 314 NONAME
	_ZN16CMceCameraSource7EnableLEv @ 315 NONAME
	_ZN16CMceCameraSource8DisableLEv @ 316 NONAME
	_ZN16CMceCameraSource9ContrastLEv @ 317 NONAME
	_ZN16CMceCameraSource9ExposureLEv @ 318 NONAME
	_ZN16CMceCameraSourceD0Ev @ 319 NONAME
	_ZN16CMceCameraSourceD1Ev @ 320 NONAME
	_ZN16CMceCameraSourceD2Ev @ 321 NONAME
	_ZN16CMceStreamBundle10AddStreamLER15CMceMediaStream @ 322 NONAME
	_ZN16CMceStreamBundle13RemoveStreamLER15CMceMediaStream @ 323 NONAME
	_ZN16CMceStreamBundle4NewLENS_20TMceStreamBundleTypeE @ 324 NONAME
	_ZN16CMceStreamBundle5NewLCENS_20TMceStreamBundleTypeE @ 325 NONAME
	_ZN16CMceStreamBundle7StreamsEv @ 326 NONAME
	_ZN16CMceStreamBundleD0Ev @ 327 NONAME
	_ZN16CMceStreamBundleD1Ev @ 328 NONAME
	_ZN16CMceStreamBundleD2Ev @ 329 NONAME
	_ZN17CMceFcMsgExchange11InitializeLER11CMceSessioniR17MMceFcMsgObserver @ 330 NONAME
	_ZN17CMceFcMsgExchange20MediaAttributeLinesLER11CMceSession @ 331 NONAME
	_ZN17CMceFcMsgExchange4NewLER11CMceManagerRK6TDesC8 @ 332 NONAME
	_ZN17CMceFcMsgExchange5SendLER11CMceSessionP6HBufC8 @ 333 NONAME
	_ZN17CMceFcMsgExchange7UpdateLER11CMceSessionP11CDesC8Array @ 334 NONAME
	_ZN19CMceSecureInSessionD0Ev @ 335 NONAME
	_ZN19CMceSecureInSessionD1Ev @ 336 NONAME
	_ZN19CMceSecureInSessionD2Ev @ 337 NONAME
	_ZN20CMceSecureOutSession4NewLER11CMceManagerR11CSIPProfileRK6TDesC8P6HBufC8 @ 338 NONAME
	_ZN20CMceSecureOutSession4NewLER9CMceEvent @ 339 NONAME
	_ZN20CMceSecureOutSession4NewLER9CMceRefer @ 340 NONAME
	_ZN20CMceSecureOutSessionD0Ev @ 341 NONAME
	_ZN20CMceSecureOutSessionD1Ev @ 342 NONAME
	_ZN20CMceSecureOutSessionD2Ev @ 343 NONAME
	_ZN28TMceTransactionDataContainer10GetContentEv @ 344 NONAME
	_ZN28TMceTransactionDataContainer10GetHeadersEv @ 345 NONAME
	_ZN28TMceTransactionDataContainer13GetStatusCodeEv @ 346 NONAME
	_ZN28TMceTransactionDataContainer14GetContentTypeEv @ 347 NONAME
	_ZN28TMceTransactionDataContainer15GetReasonPhraseEv @ 348 NONAME
	_ZN28TMceTransactionDataContainer17GetContentHeadersEv @ 349 NONAME
	_ZN28TMceTransactionDataContainerC1Ev @ 350 NONAME
	_ZN28TMceTransactionDataContainerC2Ev @ 351 NONAME
	_ZN9CMceCodec14SetPreferenceLEi @ 352 NONAME
	_ZN9CMceCodec15SetMMFPriorityLEi @ 353 NONAME
	_ZN9CMceCodec16SetStandByTimerLEm @ 354 NONAME
	_ZN9CMceCodec17SetKeepAliveDataLERK6TDesC8 @ 355 NONAME
	_ZN9CMceCodec18SetKeepAliveTimerLEh @ 356 NONAME
	_ZN9CMceCodec24SetKeepAlivePayloadTypeLEh @ 357 NONAME
	_ZN9CMceCodec25SetMMFPriorityPreferenceLEi @ 358 NONAME
	_ZN9CMceCodec9SetStateLENS_6TStateE @ 359 NONAME
	_ZN9CMceEvent10TerminateLEP11CDesC8ArrayP6HBufC8S3_ @ 360 NONAME
	_ZNK11CMceCnCodec6CloneLEv @ 361 NONAME
	_ZNK11CMceManager15DefaultHeadersLERK6TDesC8 @ 362 NONAME
	_ZNK11CMceManager20SupportedAudioCodecsEv @ 363 NONAME
	_ZNK11CMceManager20SupportedVideoCodecsEv @ 364 NONAME
	_ZNK11CMceManager6EventsEv @ 365 NONAME
	_ZNK11CMceManager6RefersEv @ 366 NONAME
	_ZNK11CMceManager8SessionsEv @ 367 NONAME
	_ZNK11CMceRtpSink10LastPacketEv @ 368 NONAME
	_ZNK11CMceRtpSink4SsrcEv @ 369 NONAME
	_ZNK11CMceSession10OriginatorEv @ 370 NONAME
	_ZNK11CMceSession11ServiceTypeEv @ 371 NONAME
	_ZNK11CMceSession12GetModifierLEmRj @ 372 NONAME
	_ZNK11CMceSession12SessionTimerEv @ 373 NONAME
	_ZNK11CMceSession16ConnectionActiveEv @ 374 NONAME
	_ZNK11CMceSession17AssociatedEventsLEv @ 375 NONAME
	_ZNK11CMceSession17AssociatedRefersLEv @ 376 NONAME
	_ZNK11CMceSession24ControlPathSecurityLevelEv @ 377 NONAME
	_ZNK11CMceSession5StateEv @ 378 NONAME
	_ZNK11CMceSession7BundlesEv @ 379 NONAME
	_ZNK11CMceSession7ProfileEv @ 380 NONAME
	_ZNK11CMceSession7StreamsEv @ 381 NONAME
	_ZNK11CMceSession9RecipientEv @ 382 NONAME
	_ZNK12CMceAmrCodec6CloneLEv @ 383 NONAME
	_ZNK12CMceAvcCodec6CloneLEv @ 384 NONAME
	_ZNK12CMceRedCodec6CloneLEv @ 385 NONAME
	_ZNK13CMceDtmfCodec6CloneLEv @ 386 NONAME
	_ZNK13CMceG711Codec6CloneLEv @ 387 NONAME
	_ZNK13CMceG729Codec6CloneLEv @ 388 NONAME
	_ZNK13CMceH263Codec6CloneLEv @ 389 NONAME
	_ZNK13CMceMediaSink4TypeEv @ 390 NONAME
	_ZNK13CMceMediaSink9IsEnabledEv @ 391 NONAME
	_ZNK13CMceMicSource5GainLEv @ 392 NONAME
	_ZNK13CMceMicSource8MaxGainLEv @ 393 NONAME
	_ZNK13CMceRtpSource4SsrcEv @ 394 NONAME
	_ZNK13CMceRtpSource5SsrcsEv @ 395 NONAME
	_ZNK13CMceiLBCCodec6CloneLEv @ 396 NONAME
	_ZNK14CMceAmrWbCodec6CloneLEv @ 397 NONAME
	_ZNK14CMceFileSource18MediaElementCountLEj @ 398 NONAME
	_ZNK14CMceFileSource20TranscodingProgressLEv @ 399 NONAME
	_ZNK14CMceFileSource9DurationLEv @ 400 NONAME
	_ZNK14CMceFileSource9PositionLEv @ 401 NONAME
	_ZNK14CMceVideoCodec10ConfigKeyLEv @ 402 NONAME
	_ZNK14CMceVideoCodec10MaxBitRateEv @ 403 NONAME
	_ZNK14CMceVideoCodec10ResolutionEv @ 404 NONAME
	_ZNK14CMceVideoCodec17AllowedFrameRatesEv @ 405 NONAME
	_ZNK14CMceVideoCodec18AllowedResolutionsEv @ 406 NONAME
	_ZNK14CMceVideoCodec9FrameRateEv @ 407 NONAME
	_ZNK15CMceDisplaySink17DisplaysAvailableEv @ 408 NONAME
	_ZNK15CMceMediaSource4TypeEv @ 409 NONAME
	_ZNK15CMceMediaSource9IsEnabledEv @ 410 NONAME
	_ZNK15CMceMediaStream11BoundStreamEv @ 411 NONAME
	_ZNK15CMceMediaStream12BoundStreamLEv @ 412 NONAME
	_ZNK15CMceMediaStream14LocalMediaPortEv @ 413 NONAME
	_ZNK15CMceMediaStream4TypeEv @ 414 NONAME
	_ZNK15CMceMediaStream5SinksEv @ 415 NONAME
	_ZNK15CMceMediaStream5StateEv @ 416 NONAME
	_ZNK15CMceMediaStream6SourceEv @ 417 NONAME
	_ZNK15CMceMediaStream7SessionEv @ 418 NONAME
	_ZNK15CMceMediaStream9IsEnabledEv @ 419 NONAME
	_ZNK15CMceSpeakerSink10MaxVolumeLEv @ 420 NONAME
	_ZNK15CMceSpeakerSink7VolumeLEv @ 421 NONAME
	_ZNK15CMceSpeakerSink8RoutingLEv @ 422 NONAME
	_ZNK15CMceVideoStream20SupportedVideoCodecsEv @ 423 NONAME
	_ZNK16CMceCameraSource13GetCameraInfoER11TCameraInfo @ 424 NONAME
	_ZNK16CMceCameraSource16CamerasAvailableEv @ 425 NONAME
	_ZNK16CMceStreamBundle4TypeEv @ 426 NONAME
	_ZNK9CMceCodec10PreferenceEv @ 427 NONAME
	_ZNK9CMceCodec11MMFPriorityEv @ 428 NONAME
	_ZNK9CMceCodec11PayloadTypeEv @ 429 NONAME
	_ZNK9CMceCodec13KeepAliveDataEv @ 430 NONAME
	_ZNK9CMceCodec14KeepAliveTimerEv @ 431 NONAME
	_ZNK9CMceCodec15AllowedBitratesEv @ 432 NONAME
	_ZNK9CMceCodec20KeepAlivePayloadTypeEv @ 433 NONAME
	_ZNK9CMceCodec21MMFPriorityPreferenceEv @ 434 NONAME
	_ZNK9CMceCodec4TypeEv @ 435 NONAME
	_ZNK9CMceCodec5StateEv @ 436 NONAME
	_ZNK9CMceCodec6FourCCEv @ 437 NONAME
	_ZNK9CMceCodec7BitrateEv @ 438 NONAME
	_ZNK9CMceCodec7SdpNameEv @ 439 NONAME
	_ZNK9CMceCodec9CodecModeEv @ 440 NONAME
	_ZNK9CMceCodec9FrameSizeEv @ 441 NONAME
	_ZNK9CMceEvent10OriginatorEv @ 442 NONAME
	_ZNK9CMceEvent11EventHeaderEv @ 443 NONAME
	_ZNK9CMceEvent17AssociatedEventsLEv @ 444 NONAME
	_ZNK9CMceEvent17AssociatedRefersLEv @ 445 NONAME
	_ZNK9CMceEvent17AssociatedSessionEv @ 446 NONAME
	_ZNK9CMceEvent5StateEv @ 447 NONAME
	_ZNK9CMceEvent9RecipientEv @ 448 NONAME
	_ZNK9CMceRefer10OriginatorEv @ 449 NONAME
	_ZNK9CMceRefer17AssociatedEventsLEv @ 450 NONAME
	_ZNK9CMceRefer17AssociatedRefersLEv @ 451 NONAME
	_ZNK9CMceRefer17AssociatedSessionEv @ 452 NONAME
	_ZNK9CMceRefer4TypeEv @ 453 NONAME
	_ZNK9CMceRefer5StateEv @ 454 NONAME
	_ZNK9CMceRefer7ReferToEv @ 455 NONAME
	_ZNK9CMceRefer9RecipientEv @ 456 NONAME
	_ZTI11CMceCnCodec @ 457 NONAME ; #<TI>#
	_ZTI11CMceInEvent @ 458 NONAME ; #<TI>#
	_ZTI11CMceInRefer @ 459 NONAME ; #<TI>#
	_ZTI11CMceManager @ 460 NONAME ; #<TI>#
	_ZTI11CMceMsgBase @ 461 NONAME ; #<TI>#
	_ZTI11CMceRtpSink @ 462 NONAME ; #<TI>#
	_ZTI11CMceSession @ 463 NONAME ; #<TI>#
	_ZTI12CMceAmrCodec @ 464 NONAME ; #<TI>#
	_ZTI12CMceAvcCodec @ 465 NONAME ; #<TI>#
	_ZTI12CMceComCodec @ 466 NONAME ; #<TI>#
	_ZTI12CMceFileSink @ 467 NONAME ; #<TI>#
	_ZTI12CMceOutEvent @ 468 NONAME ; #<TI>#
	_ZTI12CMceOutRefer @ 469 NONAME ; #<TI>#
	_ZTI12CMceRedCodec @ 470 NONAME ; #<TI>#
	_ZTI13CMceDtmfCodec @ 471 NONAME ; #<TI>#
	_ZTI13CMceG711Codec @ 472 NONAME ; #<TI>#
	_ZTI13CMceG729Codec @ 473 NONAME ; #<TI>#
	_ZTI13CMceH263Codec @ 474 NONAME ; #<TI>#
	_ZTI13CMceInSession @ 475 NONAME ; #<TI>#
	_ZTI13CMceItcSender @ 476 NONAME ; #<TI>#
	_ZTI13CMceMediaSink @ 477 NONAME ; #<TI>#
	_ZTI13CMceMicSource @ 478 NONAME ; #<TI>#
	_ZTI13CMceRtpSource @ 479 NONAME ; #<TI>#
	_ZTI13CMceiLBCCodec @ 480 NONAME ; #<TI>#
	_ZTI14CMceAmrWbCodec @ 481 NONAME ; #<TI>#
	_ZTI14CMceAudioCodec @ 482 NONAME ; #<TI>#
	_ZTI14CMceComCnCodec @ 483 NONAME ; #<TI>#
	_ZTI14CMceComRtpSink @ 484 NONAME ; #<TI>#
	_ZTI14CMceComSession @ 485 NONAME ; #<TI>#
	_ZTI14CMceFileSource @ 486 NONAME ; #<TI>#
	_ZTI14CMceMsgSIPData @ 487 NONAME ; #<TI>#
	_ZTI14CMceOutSession @ 488 NONAME ; #<TI>#
	_ZTI14CMceVideoCodec @ 489 NONAME ; #<TI>#
	_ZTI15CMceAudioStream @ 490 NONAME ; #<TI>#
	_ZTI15CMceComAMRCodec @ 491 NONAME ; #<TI>#
	_ZTI15CMceComAvcCodec @ 492 NONAME ; #<TI>#
	_ZTI15CMceComEndpoint @ 493 NONAME ; #<TI>#
	_ZTI15CMceComFileSink @ 494 NONAME ; #<TI>#
	_ZTI15CMceComRedCodec @ 495 NONAME ; #<TI>#
	_ZTI15CMceDisplaySink @ 496 NONAME ; #<TI>#
	_ZTI15CMceMediaSource @ 497 NONAME ; #<TI>#
	_ZTI15CMceMediaStream @ 498 NONAME ; #<TI>#
	_ZTI15CMceMsgSIPEvent @ 499 NONAME ; #<TI>#
	_ZTI15CMceMsgSIPReply @ 500 NONAME ; #<TI>#
	_ZTI15CMceSpeakerSink @ 501 NONAME ; #<TI>#
	_ZTI15CMceVideoStream @ 502 NONAME ; #<TI>#
	_ZTI16CMceCameraSource @ 503 NONAME ; #<TI>#
	_ZTI16CMceComDtmfCodec @ 504 NONAME ; #<TI>#
	_ZTI16CMceComG711Codec @ 505 NONAME ; #<TI>#
	_ZTI16CMceComG729Codec @ 506 NONAME ; #<TI>#
	_ZTI16CMceComH263Codec @ 507 NONAME ; #<TI>#
	_ZTI16CMceComMediaSink @ 508 NONAME ; #<TI>#
	_ZTI16CMceComMicSource @ 509 NONAME ; #<TI>#
	_ZTI16CMceComRtpSource @ 510 NONAME ; #<TI>#
	_ZTI16CMceComiLBCCodec @ 511 NONAME ; #<TI>#
	_ZTI16CMceMsgTextArray @ 512 NONAME ; #<TI>#
	_ZTI16CMceStreamBundle @ 513 NONAME ; #<TI>#
	_ZTI17CMceComAMRWbCodec @ 514 NONAME ; #<TI>#
	_ZTI17CMceComAudioCodec @ 515 NONAME ; #<TI>#
	_ZTI17CMceComFileSource @ 516 NONAME ; #<TI>#
	_ZTI17CMceComVideoCodec @ 517 NONAME ; #<TI>#
	_ZTI17CMceEventReceiver @ 518 NONAME ; #<TI>#
	_ZTI17CMceFcMsgExchange @ 519 NONAME ; #<TI>#
	_ZTI17CMceMsgSIPRequest @ 520 NONAME ; #<TI>#
	_ZTI17CMceReferReceiver @ 521 NONAME ; #<TI>#
	_ZTI18CMceComAudioStream @ 522 NONAME ; #<TI>#
	_ZTI18CMceComDisplaySink @ 523 NONAME ; #<TI>#
	_ZTI18CMceComMediaSource @ 524 NONAME ; #<TI>#
	_ZTI18CMceComMediaStream @ 525 NONAME ; #<TI>#
	_ZTI18CMceComSpeakerSink @ 526 NONAME ; #<TI>#
	_ZTI18CMceComVideoStream @ 527 NONAME ; #<TI>#
	_ZTI19CMceComCameraSource @ 528 NONAME ; #<TI>#
	_ZTI19CMceComStreamBundle @ 529 NONAME ; #<TI>#
	_ZTI19CMceItcReceiverBase @ 530 NONAME ; #<TI>#
	_ZTI19CMceManagerReceiver @ 531 NONAME ; #<TI>#
	_ZTI19CMceSecureInSession @ 532 NONAME ; #<TI>#
	_ZTI19CMceSessionReceiver @ 533 NONAME ; #<TI>#
	_ZTI20CMceSecureOutSession @ 534 NONAME ; #<TI>#
	_ZTI24CMceEventManagerReceiver @ 535 NONAME ; #<TI>#
	_ZTI4RMce @ 536 NONAME ; #<TI>#
	_ZTI9CMceCodec @ 537 NONAME ; #<TI>#
	_ZTI9CMceEvent @ 538 NONAME ; #<TI>#
	_ZTI9CMceRefer @ 539 NONAME ; #<TI>#
	_ZTV11CMceCnCodec @ 540 NONAME ; #<VT>#
	_ZTV11CMceInEvent @ 541 NONAME ; #<VT>#
	_ZTV11CMceInRefer @ 542 NONAME ; #<VT>#
	_ZTV11CMceManager @ 543 NONAME ; #<VT>#
	_ZTV11CMceMsgBase @ 544 NONAME ; #<VT>#
	_ZTV11CMceRtpSink @ 545 NONAME ; #<VT>#
	_ZTV11CMceSession @ 546 NONAME ; #<VT>#
	_ZTV12CMceAmrCodec @ 547 NONAME ; #<VT>#
	_ZTV12CMceAvcCodec @ 548 NONAME ; #<VT>#
	_ZTV12CMceComCodec @ 549 NONAME ; #<VT>#
	_ZTV12CMceFileSink @ 550 NONAME ; #<VT>#
	_ZTV12CMceOutEvent @ 551 NONAME ; #<VT>#
	_ZTV12CMceOutRefer @ 552 NONAME ; #<VT>#
	_ZTV12CMceRedCodec @ 553 NONAME ; #<VT>#
	_ZTV13CMceDtmfCodec @ 554 NONAME ; #<VT>#
	_ZTV13CMceG711Codec @ 555 NONAME ; #<VT>#
	_ZTV13CMceG729Codec @ 556 NONAME ; #<VT>#
	_ZTV13CMceH263Codec @ 557 NONAME ; #<VT>#
	_ZTV13CMceInSession @ 558 NONAME ; #<VT>#
	_ZTV13CMceItcSender @ 559 NONAME ; #<VT>#
	_ZTV13CMceMediaSink @ 560 NONAME ; #<VT>#
	_ZTV13CMceMicSource @ 561 NONAME ; #<VT>#
	_ZTV13CMceRtpSource @ 562 NONAME ; #<VT>#
	_ZTV13CMceiLBCCodec @ 563 NONAME ; #<VT>#
	_ZTV14CMceAmrWbCodec @ 564 NONAME ; #<VT>#
	_ZTV14CMceAudioCodec @ 565 NONAME ; #<VT>#
	_ZTV14CMceComCnCodec @ 566 NONAME ; #<VT>#
	_ZTV14CMceComRtpSink @ 567 NONAME ; #<VT>#
	_ZTV14CMceComSession @ 568 NONAME ; #<VT>#
	_ZTV14CMceFileSource @ 569 NONAME ; #<VT>#
	_ZTV14CMceMsgSIPData @ 570 NONAME ; #<VT>#
	_ZTV14CMceOutSession @ 571 NONAME ; #<VT>#
	_ZTV14CMceVideoCodec @ 572 NONAME ; #<VT>#
	_ZTV15CMceAudioStream @ 573 NONAME ; #<VT>#
	_ZTV15CMceComAMRCodec @ 574 NONAME ; #<VT>#
	_ZTV15CMceComAvcCodec @ 575 NONAME ; #<VT>#
	_ZTV15CMceComEndpoint @ 576 NONAME ; #<VT>#
	_ZTV15CMceComFileSink @ 577 NONAME ; #<VT>#
	_ZTV15CMceComRedCodec @ 578 NONAME ; #<VT>#
	_ZTV15CMceDisplaySink @ 579 NONAME ; #<VT>#
	_ZTV15CMceMediaSource @ 580 NONAME ; #<VT>#
	_ZTV15CMceMediaStream @ 581 NONAME ; #<VT>#
	_ZTV15CMceMsgSIPEvent @ 582 NONAME ; #<VT>#
	_ZTV15CMceMsgSIPReply @ 583 NONAME ; #<VT>#
	_ZTV15CMceSpeakerSink @ 584 NONAME ; #<VT>#
	_ZTV15CMceVideoStream @ 585 NONAME ; #<VT>#
	_ZTV16CMceCameraSource @ 586 NONAME ; #<VT>#
	_ZTV16CMceComDtmfCodec @ 587 NONAME ; #<VT>#
	_ZTV16CMceComG711Codec @ 588 NONAME ; #<VT>#
	_ZTV16CMceComG729Codec @ 589 NONAME ; #<VT>#
	_ZTV16CMceComH263Codec @ 590 NONAME ; #<VT>#
	_ZTV16CMceComMediaSink @ 591 NONAME ; #<VT>#
	_ZTV16CMceComMicSource @ 592 NONAME ; #<VT>#
	_ZTV16CMceComRtpSource @ 593 NONAME ; #<VT>#
	_ZTV16CMceComiLBCCodec @ 594 NONAME ; #<VT>#
	_ZTV16CMceMsgTextArray @ 595 NONAME ; #<VT>#
	_ZTV16CMceStreamBundle @ 596 NONAME ; #<VT>#
	_ZTV17CMceComAMRWbCodec @ 597 NONAME ; #<VT>#
	_ZTV17CMceComAudioCodec @ 598 NONAME ; #<VT>#
	_ZTV17CMceComFileSource @ 599 NONAME ; #<VT>#
	_ZTV17CMceComVideoCodec @ 600 NONAME ; #<VT>#
	_ZTV17CMceEventReceiver @ 601 NONAME ; #<VT>#
	_ZTV17CMceFcMsgExchange @ 602 NONAME ; #<VT>#
	_ZTV17CMceMsgSIPRequest @ 603 NONAME ; #<VT>#
	_ZTV17CMceReferReceiver @ 604 NONAME ; #<VT>#
	_ZTV18CMceComAudioStream @ 605 NONAME ; #<VT>#
	_ZTV18CMceComDisplaySink @ 606 NONAME ; #<VT>#
	_ZTV18CMceComMediaSource @ 607 NONAME ; #<VT>#
	_ZTV18CMceComMediaStream @ 608 NONAME ; #<VT>#
	_ZTV18CMceComSpeakerSink @ 609 NONAME ; #<VT>#
	_ZTV18CMceComVideoStream @ 610 NONAME ; #<VT>#
	_ZTV19CMceComCameraSource @ 611 NONAME ; #<VT>#
	_ZTV19CMceComStreamBundle @ 612 NONAME ; #<VT>#
	_ZTV19CMceItcReceiverBase @ 613 NONAME ; #<VT>#
	_ZTV19CMceManagerReceiver @ 614 NONAME ; #<VT>#
	_ZTV19CMceSecureInSession @ 615 NONAME ; #<VT>#
	_ZTV19CMceSessionReceiver @ 616 NONAME ; #<VT>#
	_ZTV20CMceSecureOutSession @ 617 NONAME ; #<VT>#
	_ZTV24CMceEventManagerReceiver @ 618 NONAME ; #<VT>#
	_ZTV4RMce @ 619 NONAME ; #<VT>#
	_ZTV9CMceCodec @ 620 NONAME ; #<VT>#
	_ZTV9CMceEvent @ 621 NONAME ; #<VT>#
	_ZTV9CMceRefer @ 622 NONAME ; #<VT>#

