EXPORTS
	?CreateTestSuiteL@@YAPAVMEUnitTest@@XZ @ 1 NONAME ; class MEUnitTest * __cdecl CreateTestSuiteL(void)
	?Close@RConnection@@QAEXXZ @ 2 NONAME ; void RConnection::Close(void)
	?CancelSend@RSocket@@QAEXXZ @ 3 NONAME ; void RSocket::CancelSend(void)
	?Family@TSockAddr@@QBEIXZ @ 4 NONAME ; unsigned int TSockAddr::Family(void) const
	?Connect@RSocketServ@@QAEHI@Z @ 5 NONAME ; int RSocketServ::Connect(unsigned int)
	?GetUserLen@TSockAddr@@QAEHXZ @ 6 NONAME ; int TSockAddr::GetUserLen(void)
	??0TSockAddr@@QAE@I@Z @ 7 NONAME ; TSockAddr::TSockAddr(unsigned int)
	?GetByName@RHostResolver@@QAEXABVTDesC16@@AAV?$TPckgBuf@VTNameRecord@@@@AAVTRequestStatus@@@Z @ 8 NONAME ; void RHostResolver::GetByName(class TDesC16 const &, class TPckgBuf<class TNameRecord> &, class TRequestStatus &)
	?Start@RConnection@@QAEXAAVTConnPref@@AAVTRequestStatus@@@Z @ 9 NONAME ; void RConnection::Start(class TConnPref &, class TRequestStatus &)
	?RecvFrom@RSocket@@QAEXAAVTDes8@@AAVTSockAddr@@IAAVTRequestStatus@@@Z @ 10 NONAME ; void RSocket::RecvFrom(class TDes8 &, class TSockAddr &, unsigned int, class TRequestStatus &)
	??0RConnection@@QAE@XZ @ 11 NONAME ; RConnection::RConnection(void)
	?ListImplementationsL@REComSession@@SAXVTUid@@AAV?$RPointerArray@VCImplementationInformation@@@@@Z @ 12 NONAME ; void REComSession::ListImplementationsL(class TUid, class RPointerArray<class CImplementationInformation> &)
	?Close@RSocket@@QAEXXZ @ 13 NONAME ; void RSocket::Close(void)
	?SetUserLen@TSockAddr@@IAEXH@Z @ 14 NONAME ; void TSockAddr::SetUserLen(int)
	?Port@TSockAddr@@QBEIXZ @ 15 NONAME ; unsigned int TSockAddr::Port(void) const
	?Next@RHostResolver@@QAEHAAV?$TPckgBuf@VTNameRecord@@@@@Z @ 16 NONAME ; int RHostResolver::Next(class TPckgBuf<class TNameRecord> &)
	?DestroyedImplementation@REComSession@@SAXVTUid@@@Z @ 17 NONAME ; void REComSession::DestroyedImplementation(class TUid)
	?CmpPort@TSockAddr@@QBEHABV1@@Z @ 18 NONAME ; int TSockAddr::CmpPort(class TSockAddr const &) const
	??0TSockAddr@@QAE@XZ @ 19 NONAME ; TSockAddr::TSockAddr(void)
	?Open@RSocket@@QAEHAAVRSocketServ@@III@Z @ 20 NONAME ; int RSocket::Open(class RSocketServ &, unsigned int, unsigned int, unsigned int)
	??0RSocketServ@@QAE@XZ @ 21 NONAME ; RSocketServ::RSocketServ(void)
	?FinalClose@REComSession@@SAXXZ @ 22 NONAME ; void REComSession::FinalClose(void)
	?Open@RHostResolver@@QAEHAAVRSocketServ@@IIAAVRConnection@@@Z @ 23 NONAME ; int RHostResolver::Open(class RSocketServ &, unsigned int, unsigned int, class RConnection &)
	?Open@RConnection@@QAEHAAVRSocketServ@@I@Z @ 24 NONAME ; int RConnection::Open(class RSocketServ &, unsigned int)
	?Open@RSocket@@QAEHAAVRSocketServ@@IIIAAVRConnection@@@Z @ 25 NONAME ; int RSocket::Open(class RSocketServ &, unsigned int, unsigned int, unsigned int, class RConnection &)
	?Start@RConnection@@QAEHAAVTConnPref@@@Z @ 26 NONAME ; int RConnection::Start(class TConnPref &)
	?SetPort@TSockAddr@@QAEXI@Z @ 27 NONAME ; void TSockAddr::SetPort(unsigned int)
	?Cancel@RHostResolver@@QAEXXZ @ 28 NONAME ; void RHostResolver::Cancel(void)
	??0REComSession@@QAE@XZ @ 29 NONAME ; REComSession::REComSession(void)
	?Open@RSocket@@QAEHAAVRSocketServ@@@Z @ 30 NONAME ; int RSocket::Open(class RSocketServ &)
	?SetFamily@TSockAddr@@QAEXI@Z @ 31 NONAME ; void TSockAddr::SetFamily(unsigned int)
	?Close@RHostResolver@@QAEXXZ @ 32 NONAME ; void RHostResolver::Close(void)
	??0RSocket@@QAE@XZ @ 33 NONAME ; RSocket::RSocket(void)
	?Name@RConnection@@QAEHAAV?$TBuf@$0IA@@@@Z @ 34 NONAME ; int RConnection::Name(class TBuf<128> &)
	?Bind@RSocket@@QAEHAAVTSockAddr@@@Z @ 35 NONAME ; int RSocket::Bind(class TSockAddr &)
	??1RConnection@@UAE@XZ @ 36 NONAME ; RConnection::~RConnection(void)
	?CancelRecv@RSocket@@QAEXXZ @ 37 NONAME ; void RSocket::CancelRecv(void)
	?Query@RHostResolver@@QAEXABVTDesC8@@AAVTDes8@@AAVTRequestStatus@@@Z @ 38 NONAME ; void RHostResolver::Query(class TDesC8 const &, class TDes8 &, class TRequestStatus &)
	?SetOpt@RSocket@@QAEHIIH@Z @ 39 NONAME ; int RSocket::SetOpt(unsigned int, unsigned int, int)
	?QueryGetNext@RHostResolver@@QAEHAAVTDes8@@@Z @ 40 NONAME ; int RHostResolver::QueryGetNext(class TDes8 &)
	?SendTo@RSocket@@QAEXABVTDesC8@@AAVTSockAddr@@IAAVTRequestStatus@@@Z @ 41 NONAME ; void RSocket::SendTo(class TDesC8 const &, class TSockAddr &, unsigned int, class TRequestStatus &)

