EXPORTS
	_Z16CreateTestSuiteLv @ 1 NONAME
	_ZTI15CMccRtpDataSink @ 2 NONAME ; #<TI>#
	_ZTI16MMccRtpInterface @ 3 NONAME ; #<TI>#
	_ZTI17CMccRtpDataSource @ 4 NONAME ; #<TI>#
	_ZTI18CMccRedPayloadRead @ 5 NONAME ; #<TI>#
	_ZTI19CMccRedPayloadWrite @ 6 NONAME ; #<TI>#
	_ZTI22CG729PayloadFormatRead @ 7 NONAME ; #<TI>#
	_ZTI23CG729PayloadFormatWrite @ 8 NONAME ; #<TI>#
	_ZTI25CFormatDecodeStateMachine @ 9 NONAME ; #<TI>#
	_ZTI25CFormatEncodeStateMachine @ 10 NONAME ; #<TI>#
	_ZTI25UT_CG729PayloadFormatRead @ 11 NONAME ; #<TI>#
	_ZTI26UT_CG729PayloadFormatWrite @ 12 NONAME ; #<TI>#
	_ZTV15CMccRtpDataSink @ 13 NONAME ; #<VT>#
	_ZTV16MMccRtpInterface @ 14 NONAME ; #<VT>#
	_ZTV17CMccRtpDataSource @ 15 NONAME ; #<VT>#
	_ZTV18CMccRedPayloadRead @ 16 NONAME ; #<VT>#
	_ZTV19CMccRedPayloadWrite @ 17 NONAME ; #<VT>#
	_ZTV22CG729PayloadFormatRead @ 18 NONAME ; #<VT>#
	_ZTV23CG729PayloadFormatWrite @ 19 NONAME ; #<VT>#
	_ZTV25CFormatDecodeStateMachine @ 20 NONAME ; #<VT>#
	_ZTV25CFormatEncodeStateMachine @ 21 NONAME ; #<VT>#
	_ZTV25UT_CG729PayloadFormatRead @ 22 NONAME ; #<VT>#
	_ZTV26UT_CG729PayloadFormatWrite @ 23 NONAME ; #<VT>#

