EXPORTS
	_Z16CreateTestSuiteLv @ 1 NONAME
	_ZN15CFCPlugInEngine10SendToNetLERK10CFCSessionP6HBufC8 @ 2 NONAME
	_ZN15CFCPlugInEngine11IsReceiverLERK10CFCSession @ 3 NONAME
	_ZN15CFCPlugInEngine12UpdateOfferLERK10CFCSessionR12CSdpDocument @ 4 NONAME
	_ZN15CFCPlugInEngine13PeekDocumentLERK10CFCSessionRK12CSdpDocument @ 5 NONAME
	_ZN15CFCPlugInEngine13PlugInByNameLERK6TDesC8 @ 6 NONAME
	_ZN15CFCPlugInEngine13UpdateAnswerLERK10CFCSessionR12CSdpDocument @ 7 NONAME
	_ZN15CFCPlugInEngine13UpdateNeededLERK10CFCSession @ 8 NONAME
	_ZN15CFCPlugInEngine14ReleaseSessionERK10CFCSession @ 9 NONAME
	_ZN15CFCPlugInEngine14UpdateSessionLER10CFCSessionm @ 10 NONAME
	_ZN15CFCPlugInEngine15SetSessionPortLER10CFCSessionm @ 11 NONAME
	_ZN15CFCPlugInEngine16StartConnectionLERK10CFCSession @ 12 NONAME
	_ZN15CFCPlugInEngine17CreateNewSessionLERK6TDesC8mm @ 13 NONAME
	_ZN15CFCPlugInEngine18SupportedProtocolLEv @ 14 NONAME
	_ZN15CFCPlugInEngine22FormatAttributeFieldsLERK10CFCSession @ 15 NONAME
	_ZN15CFCPlugInEngine25SetFormatAttributeFieldsLERK10CFCSessionP13RPointerArrayI21CSdpFmtAttributeFieldE @ 16 NONAME
	_ZN15CFCPlugInEngine4NewLER11MFCObserver @ 17 NONAME
	_ZN15CFCPlugInEngine5NewLCER11MFCObserver @ 18 NONAME
	_ZN15CFCPlugInEngineD0Ev @ 19 NONAME
	_ZN15CFCPlugInEngineD1Ev @ 20 NONAME
	_ZN15CFCPlugInEngineD2Ev @ 21 NONAME
	_ZTI10CFCSession @ 22 NONAME ; #<TI>#
	_ZTI13CFCPlugInInfo @ 23 NONAME ; #<TI>#
	_ZTI13UT_CFCSession @ 24 NONAME ; #<TI>#
	_ZTI15CFCPlugInEngine @ 25 NONAME ; #<TI>#
	_ZTI15UT_CFCInterface @ 26 NONAME ; #<TI>#
	_ZTI17CTestPlugInEngine @ 27 NONAME ; #<TI>#
	_ZTI18UT_CFCPlugInEngine @ 28 NONAME ; #<TI>#
	_ZTV10CFCSession @ 29 NONAME ; #<VT>#
	_ZTV13CFCPlugInInfo @ 30 NONAME ; #<VT>#
	_ZTV13UT_CFCSession @ 31 NONAME ; #<VT>#
	_ZTV15CFCPlugInEngine @ 32 NONAME ; #<VT>#
	_ZTV15UT_CFCInterface @ 33 NONAME ; #<VT>#
	_ZTV17CTestPlugInEngine @ 34 NONAME ; #<VT>#
	_ZTV18UT_CFCPlugInEngine @ 35 NONAME ; #<VT>#
	_ZThn8_N15CFCPlugInEngineD0Ev @ 36 NONAME ; #<thunk>#
	_ZThn8_N15CFCPlugInEngineD1Ev @ 37 NONAME ; #<thunk>#

